
pacemaker.elf:     file format elf32-littlenios2
pacemaker.elf
architecture: nios2:r1, flags 0x00000112:
EXEC_P, HAS_SYMS, D_PAGED
start address 0x00800244

Program Header:
    LOAD off    0x00001000 vaddr 0x00800000 paddr 0x00800000 align 2**12
         filesz 0x00000020 memsz 0x00000020 flags r-x
    LOAD off    0x00001020 vaddr 0x00800020 paddr 0x00800020 align 2**12
         filesz 0x0000ec28 memsz 0x0000ec28 flags r-x
    LOAD off    0x0000fc48 vaddr 0x0080ec48 paddr 0x008108a0 align 2**12
         filesz 0x00001c58 memsz 0x00001c58 flags rw-
    LOAD off    0x000124f8 vaddr 0x008124f8 paddr 0x008124f8 align 2**12
         filesz 0x00000000 memsz 0x00000154 flags rw-

Sections:
Idx Name          Size      VMA       LMA       File off  Algn
  0 .entry        00000020  00800000  00800000  00001000  2**5
                  CONTENTS, ALLOC, LOAD, READONLY, CODE
  1 .exceptions   00000224  00800020  00800020  00001020  2**2
                  CONTENTS, ALLOC, LOAD, READONLY, CODE
  2 .text         0000e624  00800244  00800244  00001244  2**2
                  CONTENTS, ALLOC, LOAD, READONLY, CODE
  3 .rodata       000003e0  0080e868  0080e868  0000f868  2**2
                  CONTENTS, ALLOC, LOAD, READONLY, DATA
  4 .rwdata       00001c58  0080ec48  008108a0  0000fc48  2**2
                  CONTENTS, ALLOC, LOAD, DATA, SMALL_DATA
  5 .bss          00000154  008124f8  008124f8  000124f8  2**2
                  ALLOC, SMALL_DATA
  6 .sdram        00000000  0081264c  0081264c  000118a0  2**0
                  CONTENTS
  7 .onchip_mem   00000000  01008000  01008000  000118a0  2**0
                  CONTENTS
  8 .comment      00000023  00000000  00000000  000118a0  2**0
                  CONTENTS, READONLY
  9 .debug_aranges 00000c20  00000000  00000000  000118c8  2**3
                  CONTENTS, READONLY, DEBUGGING
 10 .debug_info   0001a0f9  00000000  00000000  000124e8  2**0
                  CONTENTS, READONLY, DEBUGGING
 11 .debug_abbrev 00007132  00000000  00000000  0002c5e1  2**0
                  CONTENTS, READONLY, DEBUGGING
 12 .debug_line   00009c45  00000000  00000000  00033713  2**0
                  CONTENTS, READONLY, DEBUGGING
 13 .debug_frame  00001b44  00000000  00000000  0003d358  2**2
                  CONTENTS, READONLY, DEBUGGING
 14 .debug_str    00003875  00000000  00000000  0003ee9c  2**0
                  CONTENTS, READONLY, DEBUGGING
 15 .debug_loc    00007a33  00000000  00000000  00042711  2**0
                  CONTENTS, READONLY, DEBUGGING
 16 .debug_alt_sim_info 00000060  00000000  00000000  0004a144  2**2
                  CONTENTS, READONLY, DEBUGGING
 17 .debug_ranges 00000c88  00000000  00000000  0004a1a8  2**3
                  CONTENTS, READONLY, DEBUGGING
 18 .thread_model 00000003  00000000  00000000  0004da5e  2**0
                  CONTENTS, READONLY
 19 .cpu          00000003  00000000  00000000  0004da61  2**0
                  CONTENTS, READONLY
 20 .qsys         00000001  00000000  00000000  0004da64  2**0
                  CONTENTS, READONLY
 21 .simulation_enabled 00000001  00000000  00000000  0004da65  2**0
                  CONTENTS, READONLY
 22 .stderr_dev   00000009  00000000  00000000  0004da66  2**0
                  CONTENTS, READONLY
 23 .stdin_dev    00000009  00000000  00000000  0004da6f  2**0
                  CONTENTS, READONLY
 24 .stdout_dev   00000009  00000000  00000000  0004da78  2**0
                  CONTENTS, READONLY
 25 .sopc_system_name 0000000c  00000000  00000000  0004da81  2**0
                  CONTENTS, READONLY
 26 .quartus_project_dir 00000025  00000000  00000000  0004da8d  2**0
                  CONTENTS, READONLY
 27 .jdi          00004de2  00000000  00000000  0004dab2  2**0
                  CONTENTS, READONLY
 28 .sopcinfo     000677b7  00000000  00000000  00052894  2**0
                  CONTENTS, READONLY
SYMBOL TABLE:
00800000 l    d  .entry	00000000 .entry
00800020 l    d  .exceptions	00000000 .exceptions
00800244 l    d  .text	00000000 .text
0080e868 l    d  .rodata	00000000 .rodata
0080ec48 l    d  .rwdata	00000000 .rwdata
008124f8 l    d  .bss	00000000 .bss
0081264c l    d  .sdram	00000000 .sdram
01008000 l    d  .onchip_mem	00000000 .onchip_mem
00000000 l    d  .comment	00000000 .comment
00000000 l    d  .debug_aranges	00000000 .debug_aranges
00000000 l    d  .debug_info	00000000 .debug_info
00000000 l    d  .debug_abbrev	00000000 .debug_abbrev
00000000 l    d  .debug_line	00000000 .debug_line
00000000 l    d  .debug_frame	00000000 .debug_frame
00000000 l    d  .debug_str	00000000 .debug_str
00000000 l    d  .debug_loc	00000000 .debug_loc
00000000 l    d  .debug_alt_sim_info	00000000 .debug_alt_sim_info
00000000 l    d  .debug_ranges	00000000 .debug_ranges
00000000 l    df *ABS*	00000000 ../pacemaker_bsp//obj/HAL/src/crt0.o
0080028c l       .text	00000000 alt_after_alt_main
00000000 l    df *ABS*	00000000 alt_irq_handler.c
00000000 l    df *ABS*	00000000 alt_instruction_exception_entry.c
00000000 l    df *ABS*	00000000 hello_world.c
00000000 l    df *ABS*	00000000 sschart.c
00000000 l    df *ABS*	00000000 adddf3.c
00000000 l    df *ABS*	00000000 gedf2.c
00000000 l    df *ABS*	00000000 ledf2.c
00000000 l    df *ABS*	00000000 subdf3.c
00000000 l    df *ABS*	00000000 libgcc2.c
00000000 l    df *ABS*	00000000 libgcc2.c
00000000 l    df *ABS*	00000000 puts.c
00000000 l    df *ABS*	00000000 strlen.c
00000000 l    df *ABS*	00000000 findfp.c
00807aec l     F .text	00000008 __fp_unlock
00807b00 l     F .text	0000019c __sinit.part.1
00807c9c l     F .text	00000008 __fp_lock
00000000 l    df *ABS*	00000000 fvwrite.c
00000000 l    df *ABS*	00000000 fwalk.c
00000000 l    df *ABS*	00000000 impure.c
0080ec48 l     O .rwdata	00000424 impure_data
00000000 l    df *ABS*	00000000 mallocr.c
00000000 l    df *ABS*	00000000 memchr.c
00000000 l    df *ABS*	00000000 memcpy.c
00000000 l    df *ABS*	00000000 memmove.c
00000000 l    df *ABS*	00000000 memset.c
00000000 l    df *ABS*	00000000 mallocr.c
00000000 l    df *ABS*	00000000 sbrkr.c
00000000 l    df *ABS*	00000000 stdio.c
00000000 l    df *ABS*	00000000 writer.c
00000000 l    df *ABS*	00000000 wsetup.c
00000000 l    df *ABS*	00000000 closer.c
00000000 l    df *ABS*	00000000 fclose.c
00000000 l    df *ABS*	00000000 fflush.c
00000000 l    df *ABS*	00000000 mallocr.c
00000000 l    df *ABS*	00000000 int_errno.c
00000000 l    df *ABS*	00000000 lseekr.c
00000000 l    df *ABS*	00000000 makebuf.c
00000000 l    df *ABS*	00000000 readr.c
00000000 l    df *ABS*	00000000 fstatr.c
00000000 l    df *ABS*	00000000 isattyr.c
00000000 l    df *ABS*	00000000 lib2-divmod.c
00000000 l    df *ABS*	00000000 alt_close.c
0080a748 l     F .text	0000003c alt_get_errno
00000000 l    df *ABS*	00000000 alt_dev.c
0080a854 l     F .text	0000002c alt_dev_null_write
00000000 l    df *ABS*	00000000 alt_errno.c
00000000 l    df *ABS*	00000000 alt_fstat.c
0080a880 l     F .text	0000003c alt_get_errno
00000000 l    df *ABS*	00000000 alt_isatty.c
0080a96c l     F .text	0000003c alt_get_errno
00000000 l    df *ABS*	00000000 alt_load.c
0080aa4c l     F .text	00000068 alt_load_section
00000000 l    df *ABS*	00000000 alt_lseek.c
0080ab38 l     F .text	0000003c alt_get_errno
00000000 l    df *ABS*	00000000 alt_main.c
00000000 l    df *ABS*	00000000 alt_malloc_lock.c
00000000 l    df *ABS*	00000000 alt_read.c
0080ad0c l     F .text	0000003c alt_get_errno
00000000 l    df *ABS*	00000000 alt_release_fd.c
00000000 l    df *ABS*	00000000 alt_sbrk.c
00810888 l     O .rwdata	00000004 heap_end
00000000 l    df *ABS*	00000000 alt_write.c
0080af58 l     F .text	0000003c alt_get_errno
00000000 l    df *ABS*	00000000 alt_sys_init.c
0080b08c l     F .text	00000034 alt_dev_reg
0080f61c l     O .rwdata	00001060 jtag_uart
0081067c l     O .rwdata	00000120 lcd
0081079c l     O .rwdata	000000c4 uart
00000000 l    df *ABS*	00000000 altera_avalon_jtag_uart_fd.c
00000000 l    df *ABS*	00000000 altera_avalon_jtag_uart_init.c
0080b3b4 l     F .text	0000020c altera_avalon_jtag_uart_irq
0080b5c0 l     F .text	000000a0 altera_avalon_jtag_uart_timeout
00000000 l    df *ABS*	00000000 altera_avalon_jtag_uart_ioctl.c
00000000 l    df *ABS*	00000000 altera_avalon_jtag_uart_read.c
00000000 l    df *ABS*	00000000 altera_avalon_jtag_uart_write.c
00000000 l    df *ABS*	00000000 altera_avalon_lcd_16207.c
0081088c l     O .rwdata	00000004 colstart
0080bbf8 l     F .text	000000b8 lcd_write_command
0080bcb0 l     F .text	000000d8 lcd_write_data
0080bd88 l     F .text	000000d0 lcd_clear_screen
0080be58 l     F .text	000001ec lcd_repaint_screen
0080c044 l     F .text	000000cc lcd_scroll_up
0080c110 l     F .text	000002ac lcd_handle_escape
0080c894 l     F .text	000000ac alt_lcd_16207_timeout
00000000 l    df *ABS*	00000000 altera_avalon_lcd_16207_fd.c
00000000 l    df *ABS*	00000000 altera_avalon_timer_sc.c
0080cad4 l     F .text	00000078 alt_avalon_timer_sc_irq
00000000 l    df *ABS*	00000000 altera_avalon_uart_fd.c
00000000 l    df *ABS*	00000000 altera_avalon_uart_init.c
0080cd84 l     F .text	0000009c altera_avalon_uart_irq
0080ce20 l     F .text	000000e4 altera_avalon_uart_rxirq
0080cf04 l     F .text	00000148 altera_avalon_uart_txirq
00000000 l    df *ABS*	00000000 altera_avalon_uart_read.c
0080d0a0 l     F .text	0000003c alt_get_errno
00000000 l    df *ABS*	00000000 altera_avalon_uart_write.c
0080d2b8 l     F .text	0000003c alt_get_errno
00000000 l    df *ABS*	00000000 alt_alarm_start.c
00000000 l    df *ABS*	00000000 alt_dcache_flush_all.c
00000000 l    df *ABS*	00000000 alt_dev_llist_insert.c
0080d614 l     F .text	0000003c alt_get_errno
00000000 l    df *ABS*	00000000 alt_do_ctors.c
00000000 l    df *ABS*	00000000 alt_do_dtors.c
00000000 l    df *ABS*	00000000 alt_icache_flush_all.c
00000000 l    df *ABS*	00000000 alt_iic.c
00000000 l    df *ABS*	00000000 alt_iic_isr_register.c
00000000 l    df *ABS*	00000000 alt_io_redirect.c
0080da88 l     F .text	000000c4 alt_open_fd
00000000 l    df *ABS*	00000000 alt_irq_vars.c
00000000 l    df *ABS*	00000000 alt_open.c
0080dbc8 l     F .text	0000003c alt_get_errno
0080dc04 l     F .text	000000c4 alt_file_locked
00000000 l    df *ABS*	00000000 alt_tick.c
00000000 l    df *ABS*	00000000 alt_usleep.c
00000000 l    df *ABS*	00000000 altera_nios2_gen2_irq.c
00000000 l    df *ABS*	00000000 alt_busy_sleep.c
00000000 l    df *ABS*	00000000 alt_find_dev.c
00000000 l    df *ABS*	00000000 alt_find_file.c
00000000 l    df *ABS*	00000000 alt_get_fd.c
00000000 l    df *ABS*	00000000 alt_icache_flush.c
00000000 l    df *ABS*	00000000 atexit.c
00000000 l    df *ABS*	00000000 ctype_.c
0080eac7 l     O .rodata	00000180 _ctype_b
00000000 l    df *ABS*	00000000 exit.c
00000000 l    df *ABS*	00000000 memcmp.c
00000000 l    df *ABS*	00000000 __atexit.c
00000000 l    df *ABS*	00000000 __call_atexit.c
00000000 l    df *ABS*	00000000 alt_exit.c
00812520 g     O .bss	00000004 alt_instruction_exception_handler
0080a540 g     F .text	00000054 _isatty_r
0080ac48 g     F .text	0000007c alt_main
00807980 g     F .text	000000c0 _puts_r
0081254c g     O .bss	00000100 alt_irq
0080a268 g     F .text	00000060 _lseek_r
008108a0 g       *ABS*	00000000 __flash_rwdata_start
0081264c g       *ABS*	00000000 __alt_heap_start
0080981c g     F .text	0000005c __sseek
00807e3c g     F .text	00000010 __sinit
00807ca4 g     F .text	00000068 __sfmoreglue
0080ace8 g     F .text	00000024 __malloc_unlock
00808f08 g     F .text	0000015c memmove
00807e24 g     F .text	00000018 _cleanup
00806e50 g     F .text	000000dc .hidden __gtdf2
0080dff0 g     F .text	00000024 altera_nios2_gen2_irq_init
00800000 g     F .entry	0000001c __reset
00800020 g       *ABS*	00000000 __flash_exceptions_start
0080a4e4 g     F .text	0000005c _fstat_r
00812504 g     O .bss	00000004 errno
00809798 g     F .text	00000008 __seofread
0081250c g     O .bss	00000004 alt_argv
00818860 g       *ABS*	00000000 _gp
0080dfc0 g     F .text	00000030 usleep
00806170 g     F .text	000001a8 reset
0080f49c g     O .rwdata	00000180 alt_fd_list
0080e16c g     F .text	00000090 alt_find_dev
00808dc0 g     F .text	00000148 memcpy
00807af4 g     F .text	0000000c _cleanup_r
0080db4c g     F .text	0000007c alt_io_redirect
00806f2c g     F .text	000000f4 .hidden __ltdf2
0080e868 g       *ABS*	00000000 __DTOR_END__
00807a40 g     F .text	00000014 puts
0080e438 g     F .text	0000009c alt_exception_cause_generated_bad_addr
0080b7b8 g     F .text	0000021c altera_avalon_jtag_uart_read
0080a68c g     F .text	00000064 .hidden __udivsi3
0080a9a8 g     F .text	000000a4 isatty
0080e3a8 g     F .text	00000090 alt_icache_flush
00812500 g     O .bss	00000004 __malloc_top_pad
00807e8c g     F .text	000004bc __sfvwrite_r
008096f0 g     F .text	00000054 _sbrk_r
0080a484 g     F .text	00000060 _read_r
00810880 g     O .rwdata	00000004 alt_max_fd
00809a88 g     F .text	000000f0 _fclose_r
00809e04 g     F .text	00000030 fflush
008124fc g     O .bss	00000004 __malloc_max_sbrked_mem
008065a4 g     F .text	000008ac .hidden __adddf3
0080ab74 g     F .text	000000d4 lseek
00810860 g     O .rwdata	00000004 _global_impure_ptr
0080918c g     F .text	00000564 _realloc_r
0081264c g       *ABS*	00000000 __bss_end
0080d998 g     F .text	000000f0 alt_iic_isr_register
0080deb8 g     F .text	00000108 alt_tick
0080ccd8 g     F .text	000000ac altera_avalon_uart_init
00807e5c g     F .text	00000018 __fp_lock_all
0080d94c g     F .text	0000004c alt_ic_irq_enabled
0080de1c g     F .text	0000009c alt_alarm_stop
00812514 g     O .bss	00000004 alt_irq_active
01008000 g       *ABS*	00000000 __alt_mem_onchip_mem
008000fc g     F .exceptions	000000d4 alt_irq_handler
0080f474 g     O .rwdata	00000028 alt_dev_null
0080d5cc g     F .text	00000048 alt_dcache_flush_all
008108a0 g       *ABS*	00000000 __ram_rwdata_end
00810878 g     O .rwdata	00000008 alt_dev_list
0080af94 g     F .text	000000f8 write
0080ec48 g       *ABS*	00000000 __ram_rodata_end
0080a8bc g     F .text	000000b0 fstat
00806f2c g     F .text	000000f4 .hidden __ledf2
0080a6f0 g     F .text	00000058 .hidden __umodsi3
0081264c g       *ABS*	00000000 end
0080c3bc g     F .text	000004d8 altera_avalon_lcd_16207_write
0080d2f4 g     F .text	000001ac altera_avalon_uart_write
0080b2f4 g     F .text	000000c0 altera_avalon_jtag_uart_init
008001d0 g     F .exceptions	00000074 alt_instruction_exception_entry
0080e868 g       *ABS*	00000000 __CTOR_LIST__
01000000 g       *ABS*	00000000 __alt_stack_pointer
0080cb4c g     F .text	0000007c alt_avalon_timer_sc_init
0080cc28 g     F .text	00000060 altera_avalon_uart_write_fd
0080791c g     F .text	00000064 .hidden __clzsi2
0080cc88 g     F .text	00000050 altera_avalon_uart_close_fd
0080b9d4 g     F .text	00000224 altera_avalon_jtag_uart_write
00807e4c g     F .text	00000004 __sfp_lock_acquire
00808cdc g     F .text	000000e4 memchr
00809f58 g     F .text	00000310 _free_r
0080e6b4 g     F .text	00000180 __call_exitprocs
00810868 g     O .rwdata	00000004 __malloc_sbrk_base
00800244 g     F .text	0000004c _start
00812518 g     O .bss	00000004 _alt_tick_rate
0081251c g     O .bss	00000004 _alt_nticks
0080ad48 g     F .text	000000fc read
0080b0f8 g     F .text	00000098 alt_sys_init
0080e59c g     F .text	00000118 __register_exitproc
0080b660 g     F .text	00000068 altera_avalon_jtag_uart_close
0080ec48 g       *ABS*	00000000 __ram_rwdata_start
0080e868 g       *ABS*	00000000 __ram_rodata_start
00812524 g     O .bss	00000028 __malloc_current_mallinfo
0080b190 g     F .text	00000060 altera_avalon_jtag_uart_read_fd
0080e304 g     F .text	000000a4 alt_get_fd
0080e014 g     F .text	00000158 alt_busy_sleep
00809a34 g     F .text	00000054 _close_r
0080e520 g     F .text	0000007c memcmp
0080b250 g     F .text	00000050 altera_avalon_jtag_uart_close_fd
0081264c g       *ABS*	00000000 __alt_stack_base
0080b2a0 g     F .text	00000054 altera_avalon_jtag_uart_ioctl_fd
008098e0 g     F .text	00000154 __swsetup_r
00806318 g     F .text	0000028c tick
00807d0c g     F .text	00000118 __sfp
0080f06c g     O .rwdata	00000408 __malloc_av_
00807e58 g     F .text	00000004 __sinit_lock_release
00809744 g     F .text	00000054 __sread
0080e1fc g     F .text	00000108 alt_find_file
0080d650 g     F .text	000000a4 alt_dev_llist_insert
0080acc4 g     F .text	00000024 __malloc_lock
0080aea8 g     F .text	000000b0 sbrk
00809da8 g     F .text	0000005c _fflush_r
008124f8 g       *ABS*	00000000 __bss_start
00809064 g     F .text	00000128 memset
00800290 g     F .text	00000034 main
00812510 g     O .bss	00000004 alt_envp
008124f8 g     O .bss	00000004 __malloc_max_total_mem
0080b1f0 g     F .text	00000060 altera_avalon_jtag_uart_write_fd
0080c940 g     F .text	00000134 altera_avalon_lcd_16207_init
00809878 g     F .text	00000008 __sclose
01000000 g       *ABS*	00000000 __alt_heap_limit
00809b78 g     F .text	00000014 fclose
008084d0 g     F .text	0000080c _malloc_r
00810884 g     O .rwdata	00000004 alt_errno
00808348 g     F .text	000000c4 _fwalk
0080a594 g     F .text	00000084 .hidden __divsi3
00809e34 g     F .text	00000124 _malloc_trim_r
0080e868 g       *ABS*	00000000 __CTOR_END__
0080e868 g       *ABS*	00000000 __flash_rodata_start
0080e868 g       *ABS*	00000000 __DTOR_LIST__
0080b0c0 g     F .text	00000038 alt_irq_init
0080ae44 g     F .text	00000064 alt_release_fd
0080e87c g     O .rodata	00000100 .hidden __clz_tab
0080e4d4 g     F .text	00000014 atexit
00809880 g     F .text	00000060 _write_r
00810864 g     O .rwdata	00000004 _impure_ptr
00812508 g     O .bss	00000004 alt_argc
00809b8c g     F .text	0000021c __sflush_r
0080d754 g     F .text	00000060 _do_dtors
00800020 g       .exceptions	00000000 alt_irq_entry
00807e74 g     F .text	00000018 __fp_unlock_all
0080ca74 g     F .text	00000060 altera_avalon_lcd_16207_write_fd
00810870 g     O .rwdata	00000008 alt_fs_list
00800020 g       *ABS*	00000000 __ram_exceptions_start
0080d7e8 g     F .text	00000050 alt_ic_isr_register
008108a0 g       *ABS*	00000000 _edata
0080cbc8 g     F .text	00000060 altera_avalon_uart_read_fd
0081264c g       *ABS*	00000000 _end
00800244 g       *ABS*	00000000 __ram_exceptions_end
0080b6c8 g     F .text	000000f0 altera_avalon_jtag_uart_ioctl
0080d8c0 g     F .text	0000008c alt_ic_irq_disable
008097a0 g     F .text	0000007c __swrite
0081086c g     O .rwdata	00000004 __malloc_trim_threshold
0080e4e8 g     F .text	00000038 exit
0080840c g     F .text	000000c4 _fwalk_reent
0080a618 g     F .text	00000074 .hidden __modsi3
008002c4 g     F .text	00005eac logic
0081089c g     O .rwdata	00000004 __ctype_ptr__
01000000 g       *ABS*	00000000 __alt_data_end
00800020 g     F .exceptions	00000000 alt_exception
00807e50 g     F .text	00000004 __sfp_lock_release
00800000 g       *ABS*	00000000 __alt_mem_sdram
0080e9c6 g     O .rodata	00000101 _ctype_
0080d04c g     F .text	00000054 altera_avalon_uart_close
0080e834 g     F .text	00000034 _exit
0080d4a0 g     F .text	0000012c alt_alarm_start
0080a2c8 g     F .text	000001bc __smakebuf_r
00807a54 g     F .text	00000098 strlen
0080dcc8 g     F .text	00000154 open
00806e50 g     F .text	000000dc .hidden __gedf2
0080d7b4 g     F .text	00000034 alt_icache_flush_all
00810890 g     O .rwdata	00000004 alt_priority_mask
0080d838 g     F .text	00000088 alt_ic_irq_enable
0080d0dc g     F .text	000001dc altera_avalon_uart_read
00807020 g     F .text	000008fc .hidden __subdf3
00810894 g     O .rwdata	00000008 alt_alarm_list
0080d6f4 g     F .text	00000060 _do_ctors
0080a784 g     F .text	000000d0 close
0080aab4 g     F .text	00000084 alt_load
00807e54 g     F .text	00000004 __sinit_lock_acquire



Disassembly of section .entry:

00800000 <__reset>:
#if NIOS2_ICACHE_SIZE > 0 && defined(ALT_ALLOW_CODE_AT_RESET) && (!defined(ALT_SIM_OPTIMIZE) || defined(NIOS2_ECC_PRESENT))
    /* Assume the instruction cache size is always a power of two. */
#if NIOS2_ICACHE_SIZE > 0x8000
    movhi r2, %hi(NIOS2_ICACHE_SIZE)
#else
    movui r2, NIOS2_ICACHE_SIZE
  800000:	00840014 	movui	r2,4096
#endif

0:
    initi r2
  800004:	1001483a 	initi	r2
    addi r2, r2, -NIOS2_ICACHE_LINE_SIZE
  800008:	10bff804 	addi	r2,r2,-32
    bgt r2, zero, 0b
  80000c:	00bffd16 	blt	zero,r2,800004 <__alt_mem_onchip_mem+0xff7f8004>
 * Jump to the _start entry point in the .text section if reset code
 * is allowed or if optimizing for RTL simulation.
 */
#if defined(ALT_ALLOW_CODE_AT_RESET) || defined(ALT_SIM_OPTIMIZE)
    /* Jump to the _start entry point in the .text section. */
    movhi r1, %hi(_start)
  800010:	00402034 	movhi	at,128
    ori r1, r1, %lo(_start)
  800014:	08409114 	ori	at,at,580
    jmp r1
  800018:	0800683a 	jmp	at
  80001c:	00000000 	call	0 <__alt_mem_sdram-0x800000>

Disassembly of section .exceptions:

00800020 <alt_exception>:

#else /* ALT_EXCEPTION_STACK disabled */
        /* 
         * Reserve space on normal stack for registers about to be pushed.
         */
        addi  sp, sp, -76
  800020:	deffed04 	addi	sp,sp,-76
         * documentation for details).
         *
         * Leave a gap in the stack frame at 4(sp) for the muldiv handler to
         * store zero into.
         */
        stw   ra,  0(sp)
  800024:	dfc00015 	stw	ra,0(sp)
        stw   r1,   8(sp)
  800028:	d8400215 	stw	at,8(sp)
        stw   r2,  12(sp)
  80002c:	d8800315 	stw	r2,12(sp)
        stw   r3,  16(sp)
  800030:	d8c00415 	stw	r3,16(sp)
        stw   r4,  20(sp)
  800034:	d9000515 	stw	r4,20(sp)
        stw   r5,  24(sp)
  800038:	d9400615 	stw	r5,24(sp)
        stw   r6,  28(sp)
  80003c:	d9800715 	stw	r6,28(sp)
        stw   r7,  32(sp)
  800040:	d9c00815 	stw	r7,32(sp)
        rdctl r5, estatus   /* Read early to avoid usage stall */
  800044:	000b307a 	rdctl	r5,estatus
        stw   r8,  36(sp)
  800048:	da000915 	stw	r8,36(sp)
        stw   r9,  40(sp)
  80004c:	da400a15 	stw	r9,40(sp)
        stw   r10, 44(sp)
  800050:	da800b15 	stw	r10,44(sp)
        stw   r11, 48(sp)
  800054:	dac00c15 	stw	r11,48(sp)
        stw   r12, 52(sp)
  800058:	db000d15 	stw	r12,52(sp)
        stw   r13, 56(sp)
  80005c:	db400e15 	stw	r13,56(sp)
        stw   r14, 60(sp)
  800060:	db800f15 	stw	r14,60(sp)
        stw   r15, 64(sp)
  800064:	dbc01015 	stw	r15,64(sp)
        /*
         * ea-4 contains the address of the instruction being executed
         * when the exception occured. For interrupt exceptions, we will
         * will be re-issue the isntruction. Store it in 72(sp)
         */
        stw   r5,  68(sp)  /* estatus */
  800068:	d9401115 	stw	r5,68(sp)
        addi  r15, ea, -4  /* instruction that caused exception */
  80006c:	ebffff04 	addi	r15,ea,-4
        stw   r15,  72(sp)
  800070:	dbc01215 	stw	r15,72(sp)
#else
        /*
         * Test to see if the exception was a software exception or caused 
         * by an external interrupt, and vector accordingly.
         */
        rdctl r4, ipending
  800074:	0009313a 	rdctl	r4,ipending
        andi  r2, r5, 1
  800078:	2880004c 	andi	r2,r5,1
        beq   r2, zero, .Lnot_irq
  80007c:	10000326 	beq	r2,zero,80008c <alt_exception+0x6c>
        beq   r4, zero, .Lnot_irq
  800080:	20000226 	beq	r4,zero,80008c <alt_exception+0x6c>
        /*
         * Now that all necessary registers have been preserved, call 
         * alt_irq_handler() to process the interrupts.
         */

        call alt_irq_handler
  800084:	08000fc0 	call	8000fc <alt_irq_handler>

        .section .exceptions.irqreturn, "xa"

        br    .Lexception_exit
  800088:	00000706 	br	8000a8 <alt_exception+0x88>
         * upon completion, so we write ea (address of instruction *after*
         * the one where the exception occured) into 72(sp). The actual
         * instruction that caused the exception is written in r2, which these
         * handlers will utilize.
         */
        stw ea, 72(sp) /* EA is PC+4 so will skip over instruction causing exception */
  80008c:	df401215 	stw	ea,72(sp)
.Lunknown_16bit:
        addi.n r4, r4, 2 /* Need PC+2 to skip over instruction causing exception */
        stw r4, 72(sp)

#else /* CDX is not Enabled and all instructions are 32bits */
        ldw r2, -4(ea) /* Instruction value that caused exception */
  800090:	e8bfff17 	ldw	r2,-4(ea)
         * debugger is present) or go into an infinite loop since the
         * handling behavior is undefined; in that case we will not return here.
         */

        /* Load exception-causing address as first argument (r4) */
        addi   r4, ea, -4
  800094:	e93fff04 	addi	r4,ea,-4

        /* Call the instruction-exception entry */
        call   alt_instruction_exception_entry
  800098:	08001d00 	call	8001d0 <alt_instruction_exception_entry>
         * instruction
         *
         * Return code was 0: Skip. The instruction after the exception is
         * already stored in 72(sp).
         */
        bne   r2, r0, .Lexception_exit
  80009c:	1000021e 	bne	r2,zero,8000a8 <alt_exception+0x88>

        /*
         * Otherwise, modify 72(sp) to re-issue the instruction that caused the
         * exception.
         */
        addi  r15, ea, -4  /* instruction that caused exception */
  8000a0:	ebffff04 	addi	r15,ea,-4
        stw   r15,  72(sp)
  8000a4:	dbc01215 	stw	r15,72(sp)
        /* 
         * Restore the saved registers, so that all general purpose registers 
         * have been restored to their state at the time the interrupt occured.
         */

        ldw   r5,  68(sp)
  8000a8:	d9401117 	ldw	r5,68(sp)
        ldw   ea,  72(sp)  /* This becomes the PC once eret is executed */
  8000ac:	df401217 	ldw	ea,72(sp)
        ldw   ra,   0(sp)
  8000b0:	dfc00017 	ldw	ra,0(sp)

        wrctl estatus, r5
  8000b4:	2801707a 	wrctl	estatus,r5

        ldw   r1,   8(sp)
  8000b8:	d8400217 	ldw	at,8(sp)
        ldw   r2,  12(sp)
  8000bc:	d8800317 	ldw	r2,12(sp)
        ldw   r3,  16(sp)
  8000c0:	d8c00417 	ldw	r3,16(sp)
        ldw   r4,  20(sp)
  8000c4:	d9000517 	ldw	r4,20(sp)
        ldw   r5,  24(sp)
  8000c8:	d9400617 	ldw	r5,24(sp)
        ldw   r6,  28(sp)
  8000cc:	d9800717 	ldw	r6,28(sp)
        ldw   r7,  32(sp)
  8000d0:	d9c00817 	ldw	r7,32(sp)

#if defined(ALT_EXCEPTION_STACK) && defined(ALT_STACK_CHECK)
        ldw   et, %gprel(alt_exception_old_stack_limit)(gp)
#endif

        ldw   r8,  36(sp)
  8000d4:	da000917 	ldw	r8,36(sp)
        ldw   r9,  40(sp)
  8000d8:	da400a17 	ldw	r9,40(sp)
        ldw   r10, 44(sp)
  8000dc:	da800b17 	ldw	r10,44(sp)
        ldw   r11, 48(sp)
  8000e0:	dac00c17 	ldw	r11,48(sp)
        ldw   r12, 52(sp)
  8000e4:	db000d17 	ldw	r12,52(sp)
        ldw   r13, 56(sp)
  8000e8:	db400e17 	ldw	r13,56(sp)
        ldw   r14, 60(sp)
  8000ec:	db800f17 	ldw	r14,60(sp)
        ldw   r15, 64(sp)
  8000f0:	dbc01017 	ldw	r15,64(sp)
        stw   et, %gprel(alt_stack_limit_value)(gp)
        stw   zero, %gprel(alt_exception_old_stack_limit)(gp)
#endif /* ALT_STACK_CHECK */
        ldw   sp,  76(sp)
#else /* ALT_EXCEPTION_STACK disabled */
        addi  sp, sp, 76
  8000f4:	dec01304 	addi	sp,sp,76

        /*
         * Return to the interrupted instruction.
         */

        eret
  8000f8:	ef80083a 	eret

008000fc <alt_irq_handler>:
 * instruction is present if the macro ALT_CI_INTERRUPT_VECTOR defined.
 */

void alt_irq_handler (void) __attribute__ ((section (".exceptions")));
void alt_irq_handler (void)
{
  8000fc:	defff904 	addi	sp,sp,-28
  800100:	dfc00615 	stw	ra,24(sp)
  800104:	df000515 	stw	fp,20(sp)
  800108:	df000504 	addi	fp,sp,20
  
  /*
   * Notify the operating system that we are at interrupt level.
   */ 
  
  ALT_OS_INT_ENTER();
  80010c:	0001883a 	nop
#ifndef NIOS2_EIC_PRESENT
static ALT_INLINE alt_u32 ALT_ALWAYS_INLINE alt_irq_pending (void)
{
  alt_u32 active;

  NIOS2_READ_IPENDING (active);
  800110:	0005313a 	rdctl	r2,ipending
  800114:	e0bffe15 	stw	r2,-8(fp)

  return active;
  800118:	e0bffe17 	ldw	r2,-8(fp)
   * Consider the case where the high priority interupt is asserted during
   * the interrupt entry sequence for a lower priority interrupt to see why
   * this is the case.
   */

  active = alt_irq_pending ();
  80011c:	e0bffb15 	stw	r2,-20(fp)

  do
  {
    i = 0;
  800120:	e03ffd15 	stw	zero,-12(fp)
    mask = 1;
  800124:	00800044 	movi	r2,1
  800128:	e0bffc15 	stw	r2,-16(fp)
     * called to clear the interrupt condition.
     */

    do
    {
      if (active & mask)
  80012c:	e0fffb17 	ldw	r3,-20(fp)
  800130:	e0bffc17 	ldw	r2,-16(fp)
  800134:	1884703a 	and	r2,r3,r2
  800138:	10001426 	beq	r2,zero,80018c <alt_irq_handler+0x90>
      { 
#ifdef ALT_ENHANCED_INTERRUPT_API_PRESENT
        alt_irq[i].handler(alt_irq[i].context); 
  80013c:	00802074 	movhi	r2,129
  800140:	10895304 	addi	r2,r2,9548
  800144:	e0fffd17 	ldw	r3,-12(fp)
  800148:	180690fa 	slli	r3,r3,3
  80014c:	10c5883a 	add	r2,r2,r3
  800150:	10c00017 	ldw	r3,0(r2)
  800154:	00802074 	movhi	r2,129
  800158:	10895304 	addi	r2,r2,9548
  80015c:	e13ffd17 	ldw	r4,-12(fp)
  800160:	200890fa 	slli	r4,r4,3
  800164:	1105883a 	add	r2,r2,r4
  800168:	10800104 	addi	r2,r2,4
  80016c:	10800017 	ldw	r2,0(r2)
  800170:	1009883a 	mov	r4,r2
  800174:	183ee83a 	callr	r3
#else
        alt_irq[i].handler(alt_irq[i].context, i); 
#endif
        break;
  800178:	0001883a 	nop
#ifndef NIOS2_EIC_PRESENT
static ALT_INLINE alt_u32 ALT_ALWAYS_INLINE alt_irq_pending (void)
{
  alt_u32 active;

  NIOS2_READ_IPENDING (active);
  80017c:	0005313a 	rdctl	r2,ipending
  800180:	e0bfff15 	stw	r2,-4(fp)

  return active;
  800184:	e0bfff17 	ldw	r2,-4(fp)
  800188:	00000706 	br	8001a8 <alt_irq_handler+0xac>
      }
      mask <<= 1;
  80018c:	e0bffc17 	ldw	r2,-16(fp)
  800190:	1085883a 	add	r2,r2,r2
  800194:	e0bffc15 	stw	r2,-16(fp)
      i++;
  800198:	e0bffd17 	ldw	r2,-12(fp)
  80019c:	10800044 	addi	r2,r2,1
  8001a0:	e0bffd15 	stw	r2,-12(fp)

    } while (1);
  8001a4:	003fe106 	br	80012c <__alt_mem_onchip_mem+0xff7f812c>

    active = alt_irq_pending ();
  8001a8:	e0bffb15 	stw	r2,-20(fp)
    
  } while (active);
  8001ac:	e0bffb17 	ldw	r2,-20(fp)
  8001b0:	103fdb1e 	bne	r2,zero,800120 <__alt_mem_onchip_mem+0xff7f8120>

  /*
   * Notify the operating system that interrupt processing is complete.
   */ 

  ALT_OS_INT_EXIT();
  8001b4:	0001883a 	nop
}
  8001b8:	0001883a 	nop
  8001bc:	e037883a 	mov	sp,fp
  8001c0:	dfc00117 	ldw	ra,4(sp)
  8001c4:	df000017 	ldw	fp,0(sp)
  8001c8:	dec00204 	addi	sp,sp,8
  8001cc:	f800283a 	ret

008001d0 <alt_instruction_exception_entry>:
 * that handler if it has been registered. Absent a handler, it will
 * break break or hang as discussed below.
 */
int 
alt_instruction_exception_entry (alt_u32 exception_pc)
{
  8001d0:	defffb04 	addi	sp,sp,-20
  8001d4:	dfc00415 	stw	ra,16(sp)
  8001d8:	df000315 	stw	fp,12(sp)
  8001dc:	df000304 	addi	fp,sp,12
  8001e0:	e13fff15 	stw	r4,-4(fp)
 * NIOS2_EXCEPTION_CAUSE_NOT_PRESENT. Your handling routine should
 * check the validity of the cause argument before proceeding.
 */
#ifdef NIOS2_HAS_EXTRA_EXCEPTION_INFO
  /* Get exception cause & "badaddr" */
  NIOS2_READ_EXCEPTION(cause);
  8001e4:	000531fa 	rdctl	r2,exception
  8001e8:	e0bffd15 	stw	r2,-12(fp)
  cause = ( (cause & NIOS2_EXCEPTION_REG_CAUSE_MASK) >>
  8001ec:	e0bffd17 	ldw	r2,-12(fp)
  8001f0:	10801f0c 	andi	r2,r2,124
  8001f4:	1004d0ba 	srli	r2,r2,2
  8001f8:	e0bffd15 	stw	r2,-12(fp)
              NIOS2_EXCEPTION_REG_CAUSE_OFST );

  NIOS2_READ_BADADDR(badaddr);
  8001fc:	0005333a 	rdctl	r2,badaddr
  800200:	e0bffe15 	stw	r2,-8(fp)
#else
  cause = NIOS2_EXCEPTION_CAUSE_NOT_PRESENT;
  badaddr = 0;
#endif /* NIOS2_HAS_EXTRA_EXCEPTION_INFO */

  if(alt_instruction_exception_handler) {
  800204:	d0a73017 	ldw	r2,-25408(gp)
  800208:	10000726 	beq	r2,zero,800228 <alt_instruction_exception_entry+0x58>
     * Call handler. Its return value indicates whether the exception-causing
     * instruction should be re-issued. The code that called us,
     * alt_eceptions_entry.S, will look at this value and adjust the ea
     * register as necessary
     */
    return alt_instruction_exception_handler(cause, exception_pc, badaddr);
  80020c:	d0a73017 	ldw	r2,-25408(gp)
  800210:	e0fffd17 	ldw	r3,-12(fp)
  800214:	e1bffe17 	ldw	r6,-8(fp)
  800218:	e17fff17 	ldw	r5,-4(fp)
  80021c:	1809883a 	mov	r4,r3
  800220:	103ee83a 	callr	r2
  800224:	00000206 	br	800230 <alt_instruction_exception_entry+0x60>
   *    (a peripheral which negates its interrupt output before its
   *    interrupt handler has been executed will cause spurious interrupts)
   */
  else {
#ifdef NIOS2_HAS_DEBUG_STUB
    NIOS2_BREAK();
  800228:	003da03a 	break	0
      ;
#endif /* NIOS2_HAS_DEBUG_STUB */
  }

  /* We should not get here. Remove compiler warning. */
  return NIOS2_EXCEPTION_RETURN_REISSUE_INST;
  80022c:	0005883a 	mov	r2,zero
}
  800230:	e037883a 	mov	sp,fp
  800234:	dfc00117 	ldw	ra,4(sp)
  800238:	df000017 	ldw	fp,0(sp)
  80023c:	dec00204 	addi	sp,sp,8
  800240:	f800283a 	ret

Disassembly of section .text:

00800244 <_start>:

    /* Assume the data cache size is always a power of two. */
#if NIOS2_DCACHE_SIZE > 0x8000
    movhi r2, %hi(NIOS2_DCACHE_SIZE)
#else
    movui r2, NIOS2_DCACHE_SIZE
  800244:	00820014 	movui	r2,2048
#endif

0:
    initd 0(r2)
  800248:	10000033 	initd	0(r2)
#ifdef NIOS2_ECC_PRESENT
    addi r2, r2, -4
#else
    addi r2, r2, -NIOS2_DCACHE_LINE_SIZE
  80024c:	10bff804 	addi	r2,r2,-32
#endif
    bgt r2, zero, 0b
  800250:	00bffd16 	blt	zero,r2,800248 <__alt_mem_onchip_mem+0xff7f8248>

    /*
     * Now that the caches are initialized, set up the stack pointer and global pointer.
     * The values provided by the linker are assumed to be correctly aligned.
     */
    movhi sp, %hi(__alt_stack_pointer)
  800254:	06c04034 	movhi	sp,256
    ori sp, sp, %lo(__alt_stack_pointer)
  800258:	dec00014 	ori	sp,sp,0
    movhi gp, %hi(_gp)
  80025c:	06802074 	movhi	gp,129
    ori gp, gp, %lo(_gp)
  800260:	d6a21814 	ori	gp,gp,34912
 */
#ifndef ALT_SIM_OPTIMIZE
    /* Log that the BSS is about to be cleared. */
    ALT_LOG_PUTS(alt_log_msg_bss)

    movhi r2, %hi(__bss_start)
  800264:	00802074 	movhi	r2,129
    ori r2, r2, %lo(__bss_start)
  800268:	10893e14 	ori	r2,r2,9464

    movhi r3, %hi(__bss_end)
  80026c:	00c02074 	movhi	r3,129
    ori r3, r3, %lo(__bss_end)
  800270:	18c99314 	ori	r3,r3,9804

    beq r2, r3, 1f
  800274:	10c00326 	beq	r2,r3,800284 <_start+0x40>

0:
    stw zero, (r2)
  800278:	10000015 	stw	zero,0(r2)
    addi r2, r2, 4
  80027c:	10800104 	addi	r2,r2,4
    bltu r2, r3, 0b
  800280:	10fffd36 	bltu	r2,r3,800278 <__alt_mem_onchip_mem+0xff7f8278>
     * section aren't defined until alt_load() has been called).
     */
    mov   et, zero
#endif

    call alt_load
  800284:	080aab40 	call	80aab4 <alt_load>

    /* Log that alt_main is about to be called. */
    ALT_LOG_PUTS(alt_log_msg_alt_main)

    /* Call the C entry point. It should never return. */
    call alt_main
  800288:	080ac480 	call	80ac48 <alt_main>

0080028c <alt_after_alt_main>:

    /* Wait in infinite loop in case alt_main does return. */
alt_after_alt_main:
    br alt_after_alt_main
  80028c:	003fff06 	br	80028c <__alt_mem_onchip_mem+0xff7f828c>

00800290 <main>:
 */

#include <stdio.h>

int main()
{
  800290:	defffe04 	addi	sp,sp,-8
  800294:	dfc00115 	stw	ra,4(sp)
  800298:	df000015 	stw	fp,0(sp)
  80029c:	d839883a 	mov	fp,sp
  printf("Hello from Nios II!\n");
  8002a0:	01002074 	movhi	r4,129
  8002a4:	213a1a04 	addi	r4,r4,-6040
  8002a8:	0807a400 	call	807a40 <puts>

  return 0;
  8002ac:	0005883a 	mov	r2,zero
}
  8002b0:	e037883a 	mov	sp,fp
  8002b4:	dfc00117 	ldw	ra,4(sp)
  8002b8:	df000017 	ldw	fp,0(sp)
  8002bc:	dec00204 	addi	sp,sp,8
  8002c0:	f800283a 	ret

008002c4 <logic>:

#include "timing.h"

#include "sschart.h"

void logic(TickData* d) {
  8002c4:	defffb04 	addi	sp,sp,-20
  8002c8:	dfc00415 	stw	ra,16(sp)
  8002cc:	df000315 	stw	fp,12(sp)
  8002d0:	dc400215 	stw	r17,8(sp)
  8002d4:	dc000115 	stw	r16,4(sp)
  8002d8:	df000304 	addi	fp,sp,12
  8002dc:	e13ffd15 	stw	r4,-12(fp)
  d->_g25 = d->_pg25;
  8002e0:	e0bffd17 	ldw	r2,-12(fp)
  8002e4:	10c05043 	ldbu	r3,321(r2)
  8002e8:	e0bffd17 	ldw	r2,-12(fp)
  8002ec:	10c019c5 	stb	r3,103(r2)
  if (d->_g25) {
  8002f0:	e0bffd17 	ldw	r2,-12(fp)
  8002f4:	108019c3 	ldbu	r2,103(r2)
  8002f8:	10803fcc 	andi	r2,r2,255
  8002fc:	1080201c 	xori	r2,r2,128
  800300:	10bfe004 	addi	r2,r2,-128
  800304:	10001226 	beq	r2,zero,800350 <logic+0x8c>
    d->_PaceMaker_local_vrp_clk += d->deltaT;
  800308:	e13ffd17 	ldw	r4,-12(fp)
  80030c:	20800717 	ldw	r2,28(r4)
  800310:	20c00817 	ldw	r3,32(r4)
  800314:	e1bffd17 	ldw	r6,-12(fp)
  800318:	31000017 	ldw	r4,0(r6)
  80031c:	31400117 	ldw	r5,4(r6)
  800320:	200d883a 	mov	r6,r4
  800324:	280f883a 	mov	r7,r5
  800328:	1009883a 	mov	r4,r2
  80032c:	180b883a 	mov	r5,r3
  800330:	08065a40 	call	8065a4 <__adddf3>
  800334:	1009883a 	mov	r4,r2
  800338:	180b883a 	mov	r5,r3
  80033c:	2005883a 	mov	r2,r4
  800340:	2807883a 	mov	r3,r5
  800344:	e13ffd17 	ldw	r4,-12(fp)
  800348:	20800715 	stw	r2,28(r4)
  80034c:	20c00815 	stw	r3,32(r4)
  }
  d->_g28 = d->_pg28;
  800350:	e0bffd17 	ldw	r2,-12(fp)
  800354:	10c05083 	ldbu	r3,322(r2)
  800358:	e0bffd17 	ldw	r2,-12(fp)
  80035c:	10c01a05 	stb	r3,104(r2)
  d->_cg28 = d->_PaceMaker_local_vrp_clk >= VRP_VALUE;
  800360:	e13ffd17 	ldw	r4,-12(fp)
  800364:	20800717 	ldw	r2,28(r4)
  800368:	20c00817 	ldw	r3,32(r4)
  80036c:	04000044 	movi	r16,1
  800370:	000d883a 	mov	r6,zero
  800374:	01d018f4 	movhi	r7,16483
  800378:	39f00004 	addi	r7,r7,-16384
  80037c:	1009883a 	mov	r4,r2
  800380:	180b883a 	mov	r5,r3
  800384:	0806e500 	call	806e50 <__gedf2>
  800388:	1000010e 	bge	r2,zero,800390 <logic+0xcc>
  80038c:	0021883a 	mov	r16,zero
  800390:	8007883a 	mov	r3,r16
  800394:	e0bffd17 	ldw	r2,-12(fp)
  800398:	10c03805 	stb	r3,224(r2)
  d->_g29 = d->_g28 && d->_cg28;
  80039c:	e0bffd17 	ldw	r2,-12(fp)
  8003a0:	10801a03 	ldbu	r2,104(r2)
  8003a4:	10803fcc 	andi	r2,r2,255
  8003a8:	1080201c 	xori	r2,r2,128
  8003ac:	10bfe004 	addi	r2,r2,-128
  8003b0:	10000826 	beq	r2,zero,8003d4 <logic+0x110>
  8003b4:	e0bffd17 	ldw	r2,-12(fp)
  8003b8:	10803803 	ldbu	r2,224(r2)
  8003bc:	10803fcc 	andi	r2,r2,255
  8003c0:	1080201c 	xori	r2,r2,128
  8003c4:	10bfe004 	addi	r2,r2,-128
  8003c8:	10000226 	beq	r2,zero,8003d4 <logic+0x110>
  8003cc:	00800044 	movi	r2,1
  8003d0:	00000106 	br	8003d8 <logic+0x114>
  8003d4:	0005883a 	mov	r2,zero
  8003d8:	1007883a 	mov	r3,r2
  8003dc:	e0bffd17 	ldw	r2,-12(fp)
  8003e0:	10c01a45 	stb	r3,105(r2)
  if (d->_g29) {
  8003e4:	e0bffd17 	ldw	r2,-12(fp)
  8003e8:	10801a43 	ldbu	r2,105(r2)
  8003ec:	10803fcc 	andi	r2,r2,255
  8003f0:	1080201c 	xori	r2,r2,128
  8003f4:	10bfe004 	addi	r2,r2,-128
  8003f8:	10000326 	beq	r2,zero,800408 <logic+0x144>
    d->_PaceMaker_local__Atrig = 1;
  8003fc:	e0bffd17 	ldw	r2,-12(fp)
  800400:	00c00044 	movi	r3,1
  800404:	10c00605 	stb	r3,24(r2)
  }
  d->AP = 0;
  800408:	e0bffd17 	ldw	r2,-12(fp)
  80040c:	10000485 	stb	zero,18(r2)
  d->VP = 0;
  800410:	e0bffd17 	ldw	r2,-12(fp)
  800414:	100004c5 	stb	zero,19(r2)
  d->ignore_AEvent = 0;
  800418:	e0bffd17 	ldw	r2,-12(fp)
  80041c:	10000505 	stb	zero,20(r2)
  d->ignore_VEvent = 0;
  800420:	e0bffd17 	ldw	r2,-12(fp)
  800424:	10000545 	stb	zero,21(r2)
  d->uri_time = 0;
  800428:	e0bffd17 	ldw	r2,-12(fp)
  80042c:	10000585 	stb	zero,22(r2)
  d->lri_time = 0;
  800430:	e0bffd17 	ldw	r2,-12(fp)
  800434:	100005c5 	stb	zero,23(r2)
  d->_g153 = d->_pg169;
  800438:	e0bffd17 	ldw	r2,-12(fp)
  80043c:	10c050c3 	ldbu	r3,323(r2)
  800440:	e0bffd17 	ldw	r2,-12(fp)
  800444:	10c02e85 	stb	r3,186(r2)
  if (d->_g153) {
  800448:	e0bffd17 	ldw	r2,-12(fp)
  80044c:	10802e83 	ldbu	r2,186(r2)
  800450:	10803fcc 	andi	r2,r2,255
  800454:	1080201c 	xori	r2,r2,128
  800458:	10bfe004 	addi	r2,r2,-128
  80045c:	10000626 	beq	r2,zero,800478 <logic+0x1b4>
    d->uri_time |= 1;
  800460:	e0bffd17 	ldw	r2,-12(fp)
  800464:	10800583 	ldbu	r2,22(r2)
  800468:	10800054 	ori	r2,r2,1
  80046c:	1007883a 	mov	r3,r2
  800470:	e0bffd17 	ldw	r2,-12(fp)
  800474:	10c00585 	stb	r3,22(r2)
  }
  d->_g109 = d->_pg74;
  800478:	e0bffd17 	ldw	r2,-12(fp)
  80047c:	10c05103 	ldbu	r3,324(r2)
  800480:	e0bffd17 	ldw	r2,-12(fp)
  800484:	10c027c5 	stb	r3,159(r2)
  d->_cg109 = !d->uri_time;
  800488:	e0bffd17 	ldw	r2,-12(fp)
  80048c:	10800583 	ldbu	r2,22(r2)
  800490:	10803fcc 	andi	r2,r2,255
  800494:	1080201c 	xori	r2,r2,128
  800498:	10bfe004 	addi	r2,r2,-128
  80049c:	1005003a 	cmpeq	r2,r2,zero
  8004a0:	1007883a 	mov	r3,r2
  8004a4:	e0bffd17 	ldw	r2,-12(fp)
  8004a8:	10c03f85 	stb	r3,254(r2)
  d->_g110 = d->_g109 && d->_cg109;
  8004ac:	e0bffd17 	ldw	r2,-12(fp)
  8004b0:	108027c3 	ldbu	r2,159(r2)
  8004b4:	10803fcc 	andi	r2,r2,255
  8004b8:	1080201c 	xori	r2,r2,128
  8004bc:	10bfe004 	addi	r2,r2,-128
  8004c0:	10000826 	beq	r2,zero,8004e4 <logic+0x220>
  8004c4:	e0bffd17 	ldw	r2,-12(fp)
  8004c8:	10803f83 	ldbu	r2,254(r2)
  8004cc:	10803fcc 	andi	r2,r2,255
  8004d0:	1080201c 	xori	r2,r2,128
  8004d4:	10bfe004 	addi	r2,r2,-128
  8004d8:	10000226 	beq	r2,zero,8004e4 <logic+0x220>
  8004dc:	00800044 	movi	r2,1
  8004e0:	00000106 	br	8004e8 <logic+0x224>
  8004e4:	0005883a 	mov	r2,zero
  8004e8:	1007883a 	mov	r3,r2
  8004ec:	e0bffd17 	ldw	r2,-12(fp)
  8004f0:	10c02805 	stb	r3,160(r2)
  if (d->_g110) {
  8004f4:	e0bffd17 	ldw	r2,-12(fp)
  8004f8:	10802803 	ldbu	r2,160(r2)
  8004fc:	10803fcc 	andi	r2,r2,255
  800500:	1080201c 	xori	r2,r2,128
  800504:	10bfe004 	addi	r2,r2,-128
  800508:	10000626 	beq	r2,zero,800524 <logic+0x260>
    d->VP |= 1;
  80050c:	e0bffd17 	ldw	r2,-12(fp)
  800510:	108004c3 	ldbu	r2,19(r2)
  800514:	10800054 	ori	r2,r2,1
  800518:	1007883a 	mov	r3,r2
  80051c:	e0bffd17 	ldw	r2,-12(fp)
  800520:	10c004c5 	stb	r3,19(r2)
  }
  d->_g76 = d->_pg111;
  800524:	e0bffd17 	ldw	r2,-12(fp)
  800528:	10c05143 	ldbu	r3,325(r2)
  80052c:	e0bffd17 	ldw	r2,-12(fp)
  800530:	10c02185 	stb	r3,134(r2)
  d->_g70 = d->_pg136_e3;
  800534:	e0bffd17 	ldw	r2,-12(fp)
  800538:	10c05183 	ldbu	r3,326(r2)
  80053c:	e0bffd17 	ldw	r2,-12(fp)
  800540:	10c02045 	stb	r3,129(r2)
  d->_g73_e1 = !(d->_g76 || d->_g70);
  800544:	e0bffd17 	ldw	r2,-12(fp)
  800548:	10802183 	ldbu	r2,134(r2)
  80054c:	10803fcc 	andi	r2,r2,255
  800550:	1080201c 	xori	r2,r2,128
  800554:	10bfe004 	addi	r2,r2,-128
  800558:	1000081e 	bne	r2,zero,80057c <logic+0x2b8>
  80055c:	e0bffd17 	ldw	r2,-12(fp)
  800560:	10802043 	ldbu	r2,129(r2)
  800564:	10803fcc 	andi	r2,r2,255
  800568:	1080201c 	xori	r2,r2,128
  80056c:	10bfe004 	addi	r2,r2,-128
  800570:	1000021e 	bne	r2,zero,80057c <logic+0x2b8>
  800574:	00800044 	movi	r2,1
  800578:	00000106 	br	800580 <logic+0x2bc>
  80057c:	0005883a 	mov	r2,zero
  800580:	1007883a 	mov	r3,r2
  800584:	e0bffd17 	ldw	r2,-12(fp)
  800588:	10c04c45 	stb	r3,305(r2)
  d->_g95 = d->_pg77;
  80058c:	e0bffd17 	ldw	r2,-12(fp)
  800590:	10c051c3 	ldbu	r3,327(r2)
  800594:	e0bffd17 	ldw	r2,-12(fp)
  800598:	10c02485 	stb	r3,146(r2)
  d->_g96 = d->_g95 && d->VS;
  80059c:	e0bffd17 	ldw	r2,-12(fp)
  8005a0:	10802483 	ldbu	r2,146(r2)
  8005a4:	10803fcc 	andi	r2,r2,255
  8005a8:	1080201c 	xori	r2,r2,128
  8005ac:	10bfe004 	addi	r2,r2,-128
  8005b0:	10000826 	beq	r2,zero,8005d4 <logic+0x310>
  8005b4:	e0bffd17 	ldw	r2,-12(fp)
  8005b8:	10800443 	ldbu	r2,17(r2)
  8005bc:	10803fcc 	andi	r2,r2,255
  8005c0:	1080201c 	xori	r2,r2,128
  8005c4:	10bfe004 	addi	r2,r2,-128
  8005c8:	10000226 	beq	r2,zero,8005d4 <logic+0x310>
  8005cc:	00800044 	movi	r2,1
  8005d0:	00000106 	br	8005d8 <logic+0x314>
  8005d4:	0005883a 	mov	r2,zero
  8005d8:	1007883a 	mov	r3,r2
  8005dc:	e0bffd17 	ldw	r2,-12(fp)
  8005e0:	10c024c5 	stb	r3,147(r2)
  if (d->_g96) {
  8005e4:	e0bffd17 	ldw	r2,-12(fp)
  8005e8:	108024c3 	ldbu	r2,147(r2)
  8005ec:	10803fcc 	andi	r2,r2,255
  8005f0:	1080201c 	xori	r2,r2,128
  8005f4:	10bfe004 	addi	r2,r2,-128
  8005f8:	10000326 	beq	r2,zero,800608 <logic+0x344>
    d->_PaceMaker_local__Atrig2 = 1;
  8005fc:	e0bffd17 	ldw	r2,-12(fp)
  800600:	00c00044 	movi	r3,1
  800604:	10c00b05 	stb	r3,44(r2)
  }
  d->_g91 = d->_pg72;
  800608:	e0bffd17 	ldw	r2,-12(fp)
  80060c:	10c05203 	ldbu	r3,328(r2)
  800610:	e0bffd17 	ldw	r2,-12(fp)
  800614:	10c02405 	stb	r3,144(r2)
  if (d->_g91) {
  800618:	e0bffd17 	ldw	r2,-12(fp)
  80061c:	10802403 	ldbu	r2,144(r2)
  800620:	10803fcc 	andi	r2,r2,255
  800624:	1080201c 	xori	r2,r2,128
  800628:	10bfe004 	addi	r2,r2,-128
  80062c:	10001226 	beq	r2,zero,800678 <logic+0x3b4>
    d->_PaceMaker_local_avi_clk += d->deltaT;
  800630:	e13ffd17 	ldw	r4,-12(fp)
  800634:	20800d17 	ldw	r2,52(r4)
  800638:	20c00e17 	ldw	r3,56(r4)
  80063c:	e1bffd17 	ldw	r6,-12(fp)
  800640:	31000017 	ldw	r4,0(r6)
  800644:	31400117 	ldw	r5,4(r6)
  800648:	200d883a 	mov	r6,r4
  80064c:	280f883a 	mov	r7,r5
  800650:	1009883a 	mov	r4,r2
  800654:	180b883a 	mov	r5,r3
  800658:	08065a40 	call	8065a4 <__adddf3>
  80065c:	1009883a 	mov	r4,r2
  800660:	180b883a 	mov	r5,r3
  800664:	2005883a 	mov	r2,r4
  800668:	2807883a 	mov	r3,r5
  80066c:	e13ffd17 	ldw	r4,-12(fp)
  800670:	20800d15 	stw	r2,52(r4)
  800674:	20c00e15 	stw	r3,56(r4)
  }
  d->_g185 = d->_pg186_e1;
  800678:	e0bffd17 	ldw	r2,-12(fp)
  80067c:	10c05243 	ldbu	r3,329(r2)
  800680:	e0bffd17 	ldw	r2,-12(fp)
  800684:	10c03345 	stb	r3,205(r2)
  if (d->_g185) {
  800688:	e0bffd17 	ldw	r2,-12(fp)
  80068c:	10803343 	ldbu	r2,205(r2)
  800690:	10803fcc 	andi	r2,r2,255
  800694:	1080201c 	xori	r2,r2,128
  800698:	10bfe004 	addi	r2,r2,-128
  80069c:	10000626 	beq	r2,zero,8006b8 <logic+0x3f4>
    d->lri_time |= 1;
  8006a0:	e0bffd17 	ldw	r2,-12(fp)
  8006a4:	108005c3 	ldbu	r2,23(r2)
  8006a8:	10800054 	ori	r2,r2,1
  8006ac:	1007883a 	mov	r3,r2
  8006b0:	e0bffd17 	ldw	r2,-12(fp)
  8006b4:	10c005c5 	stb	r3,23(r2)
  }
  d->_g98 = d->_g95 && !d->VS;
  8006b8:	e0bffd17 	ldw	r2,-12(fp)
  8006bc:	10802483 	ldbu	r2,146(r2)
  8006c0:	10803fcc 	andi	r2,r2,255
  8006c4:	1080201c 	xori	r2,r2,128
  8006c8:	10bfe004 	addi	r2,r2,-128
  8006cc:	10000826 	beq	r2,zero,8006f0 <logic+0x42c>
  8006d0:	e0bffd17 	ldw	r2,-12(fp)
  8006d4:	10800443 	ldbu	r2,17(r2)
  8006d8:	10803fcc 	andi	r2,r2,255
  8006dc:	1080201c 	xori	r2,r2,128
  8006e0:	10bfe004 	addi	r2,r2,-128
  8006e4:	1000021e 	bne	r2,zero,8006f0 <logic+0x42c>
  8006e8:	00800044 	movi	r2,1
  8006ec:	00000106 	br	8006f4 <logic+0x430>
  8006f0:	0005883a 	mov	r2,zero
  8006f4:	1007883a 	mov	r3,r2
  8006f8:	e0bffd17 	ldw	r2,-12(fp)
  8006fc:	10c02545 	stb	r3,149(r2)
  d->_cg98 = !d->VS && d->_PaceMaker_local_avi_clk >= AVI_VALUE - 1 && !d->uri_time && d->lri_time;
  800700:	e0bffd17 	ldw	r2,-12(fp)
  800704:	10800443 	ldbu	r2,17(r2)
  800708:	10803fcc 	andi	r2,r2,255
  80070c:	1080201c 	xori	r2,r2,128
  800710:	10bfe004 	addi	r2,r2,-128
  800714:	1000181e 	bne	r2,zero,800778 <logic+0x4b4>
  800718:	e13ffd17 	ldw	r4,-12(fp)
  80071c:	20800d17 	ldw	r2,52(r4)
  800720:	20c00e17 	ldw	r3,56(r4)
  800724:	000d883a 	mov	r6,zero
  800728:	01d01cf4 	movhi	r7,16499
  80072c:	39ec0004 	addi	r7,r7,-20480
  800730:	1009883a 	mov	r4,r2
  800734:	180b883a 	mov	r5,r3
  800738:	0806e500 	call	806e50 <__gedf2>
  80073c:	10000e16 	blt	r2,zero,800778 <logic+0x4b4>
  800740:	e0bffd17 	ldw	r2,-12(fp)
  800744:	10800583 	ldbu	r2,22(r2)
  800748:	10803fcc 	andi	r2,r2,255
  80074c:	1080201c 	xori	r2,r2,128
  800750:	10bfe004 	addi	r2,r2,-128
  800754:	1000081e 	bne	r2,zero,800778 <logic+0x4b4>
  800758:	e0bffd17 	ldw	r2,-12(fp)
  80075c:	108005c3 	ldbu	r2,23(r2)
  800760:	10803fcc 	andi	r2,r2,255
  800764:	1080201c 	xori	r2,r2,128
  800768:	10bfe004 	addi	r2,r2,-128
  80076c:	10000226 	beq	r2,zero,800778 <logic+0x4b4>
  800770:	00800044 	movi	r2,1
  800774:	00000106 	br	80077c <logic+0x4b8>
  800778:	0005883a 	mov	r2,zero
  80077c:	1007883a 	mov	r3,r2
  800780:	e0bffd17 	ldw	r2,-12(fp)
  800784:	10c03e85 	stb	r3,250(r2)
  d->_g99 = d->_g98 && d->_cg98;
  800788:	e0bffd17 	ldw	r2,-12(fp)
  80078c:	10802543 	ldbu	r2,149(r2)
  800790:	10803fcc 	andi	r2,r2,255
  800794:	1080201c 	xori	r2,r2,128
  800798:	10bfe004 	addi	r2,r2,-128
  80079c:	10000826 	beq	r2,zero,8007c0 <logic+0x4fc>
  8007a0:	e0bffd17 	ldw	r2,-12(fp)
  8007a4:	10803e83 	ldbu	r2,250(r2)
  8007a8:	10803fcc 	andi	r2,r2,255
  8007ac:	1080201c 	xori	r2,r2,128
  8007b0:	10bfe004 	addi	r2,r2,-128
  8007b4:	10000226 	beq	r2,zero,8007c0 <logic+0x4fc>
  8007b8:	00800044 	movi	r2,1
  8007bc:	00000106 	br	8007c4 <logic+0x500>
  8007c0:	0005883a 	mov	r2,zero
  8007c4:	1007883a 	mov	r3,r2
  8007c8:	e0bffd17 	ldw	r2,-12(fp)
  8007cc:	10c02585 	stb	r3,150(r2)
  if (d->_g99) {
  8007d0:	e0bffd17 	ldw	r2,-12(fp)
  8007d4:	10802583 	ldbu	r2,150(r2)
  8007d8:	10803fcc 	andi	r2,r2,255
  8007dc:	1080201c 	xori	r2,r2,128
  8007e0:	10bfe004 	addi	r2,r2,-128
  8007e4:	10000326 	beq	r2,zero,8007f4 <logic+0x530>
    d->_PaceMaker_local__Atrig3 = 1;
  8007e8:	e0bffd17 	ldw	r2,-12(fp)
  8007ec:	00c00044 	movi	r3,1
  8007f0:	10c00b45 	stb	r3,45(r2)
  }
  d->_g98 = d->_g98 && !d->_cg98;
  8007f4:	e0bffd17 	ldw	r2,-12(fp)
  8007f8:	10802543 	ldbu	r2,149(r2)
  8007fc:	10803fcc 	andi	r2,r2,255
  800800:	1080201c 	xori	r2,r2,128
  800804:	10bfe004 	addi	r2,r2,-128
  800808:	10000826 	beq	r2,zero,80082c <logic+0x568>
  80080c:	e0bffd17 	ldw	r2,-12(fp)
  800810:	10803e83 	ldbu	r2,250(r2)
  800814:	10803fcc 	andi	r2,r2,255
  800818:	1080201c 	xori	r2,r2,128
  80081c:	10bfe004 	addi	r2,r2,-128
  800820:	1000021e 	bne	r2,zero,80082c <logic+0x568>
  800824:	00800044 	movi	r2,1
  800828:	00000106 	br	800830 <logic+0x56c>
  80082c:	0005883a 	mov	r2,zero
  800830:	1007883a 	mov	r3,r2
  800834:	e0bffd17 	ldw	r2,-12(fp)
  800838:	10c02545 	stb	r3,149(r2)
  d->_cg100 = !d->VS && d->_PaceMaker_local_avi_clk >= AVI_VALUE - 1 && d->uri_time;
  80083c:	e0bffd17 	ldw	r2,-12(fp)
  800840:	10800443 	ldbu	r2,17(r2)
  800844:	10803fcc 	andi	r2,r2,255
  800848:	1080201c 	xori	r2,r2,128
  80084c:	10bfe004 	addi	r2,r2,-128
  800850:	1000121e 	bne	r2,zero,80089c <logic+0x5d8>
  800854:	e13ffd17 	ldw	r4,-12(fp)
  800858:	20800d17 	ldw	r2,52(r4)
  80085c:	20c00e17 	ldw	r3,56(r4)
  800860:	000d883a 	mov	r6,zero
  800864:	01d01cf4 	movhi	r7,16499
  800868:	39ec0004 	addi	r7,r7,-20480
  80086c:	1009883a 	mov	r4,r2
  800870:	180b883a 	mov	r5,r3
  800874:	0806e500 	call	806e50 <__gedf2>
  800878:	10000816 	blt	r2,zero,80089c <logic+0x5d8>
  80087c:	e0bffd17 	ldw	r2,-12(fp)
  800880:	10800583 	ldbu	r2,22(r2)
  800884:	10803fcc 	andi	r2,r2,255
  800888:	1080201c 	xori	r2,r2,128
  80088c:	10bfe004 	addi	r2,r2,-128
  800890:	10000226 	beq	r2,zero,80089c <logic+0x5d8>
  800894:	00800044 	movi	r2,1
  800898:	00000106 	br	8008a0 <logic+0x5dc>
  80089c:	0005883a 	mov	r2,zero
  8008a0:	1007883a 	mov	r3,r2
  8008a4:	e0bffd17 	ldw	r2,-12(fp)
  8008a8:	10c03ec5 	stb	r3,251(r2)
  d->_g101 = d->_g98 && d->_cg100;
  8008ac:	e0bffd17 	ldw	r2,-12(fp)
  8008b0:	10802543 	ldbu	r2,149(r2)
  8008b4:	10803fcc 	andi	r2,r2,255
  8008b8:	1080201c 	xori	r2,r2,128
  8008bc:	10bfe004 	addi	r2,r2,-128
  8008c0:	10000826 	beq	r2,zero,8008e4 <logic+0x620>
  8008c4:	e0bffd17 	ldw	r2,-12(fp)
  8008c8:	10803ec3 	ldbu	r2,251(r2)
  8008cc:	10803fcc 	andi	r2,r2,255
  8008d0:	1080201c 	xori	r2,r2,128
  8008d4:	10bfe004 	addi	r2,r2,-128
  8008d8:	10000226 	beq	r2,zero,8008e4 <logic+0x620>
  8008dc:	00800044 	movi	r2,1
  8008e0:	00000106 	br	8008e8 <logic+0x624>
  8008e4:	0005883a 	mov	r2,zero
  8008e8:	1007883a 	mov	r3,r2
  8008ec:	e0bffd17 	ldw	r2,-12(fp)
  8008f0:	10c02605 	stb	r3,152(r2)
  if (d->_g101) {
  8008f4:	e0bffd17 	ldw	r2,-12(fp)
  8008f8:	10802603 	ldbu	r2,152(r2)
  8008fc:	10803fcc 	andi	r2,r2,255
  800900:	1080201c 	xori	r2,r2,128
  800904:	10bfe004 	addi	r2,r2,-128
  800908:	10000326 	beq	r2,zero,800918 <logic+0x654>
    d->_PaceMaker_local__Atrig4 = 1;
  80090c:	e0bffd17 	ldw	r2,-12(fp)
  800910:	00c00044 	movi	r3,1
  800914:	10c00b85 	stb	r3,46(r2)
  }
  d->_g100 = d->_g98 && !d->_cg100;
  800918:	e0bffd17 	ldw	r2,-12(fp)
  80091c:	10802543 	ldbu	r2,149(r2)
  800920:	10803fcc 	andi	r2,r2,255
  800924:	1080201c 	xori	r2,r2,128
  800928:	10bfe004 	addi	r2,r2,-128
  80092c:	10000826 	beq	r2,zero,800950 <logic+0x68c>
  800930:	e0bffd17 	ldw	r2,-12(fp)
  800934:	10803ec3 	ldbu	r2,251(r2)
  800938:	10803fcc 	andi	r2,r2,255
  80093c:	1080201c 	xori	r2,r2,128
  800940:	10bfe004 	addi	r2,r2,-128
  800944:	1000021e 	bne	r2,zero,800950 <logic+0x68c>
  800948:	00800044 	movi	r2,1
  80094c:	00000106 	br	800954 <logic+0x690>
  800950:	0005883a 	mov	r2,zero
  800954:	1007883a 	mov	r3,r2
  800958:	e0bffd17 	ldw	r2,-12(fp)
  80095c:	10c025c5 	stb	r3,151(r2)
  d->_cg102 = !d->VS && !d->lri_time;
  800960:	e0bffd17 	ldw	r2,-12(fp)
  800964:	10800443 	ldbu	r2,17(r2)
  800968:	10803fcc 	andi	r2,r2,255
  80096c:	1080201c 	xori	r2,r2,128
  800970:	10bfe004 	addi	r2,r2,-128
  800974:	1000081e 	bne	r2,zero,800998 <logic+0x6d4>
  800978:	e0bffd17 	ldw	r2,-12(fp)
  80097c:	108005c3 	ldbu	r2,23(r2)
  800980:	10803fcc 	andi	r2,r2,255
  800984:	1080201c 	xori	r2,r2,128
  800988:	10bfe004 	addi	r2,r2,-128
  80098c:	1000021e 	bne	r2,zero,800998 <logic+0x6d4>
  800990:	00800044 	movi	r2,1
  800994:	00000106 	br	80099c <logic+0x6d8>
  800998:	0005883a 	mov	r2,zero
  80099c:	1007883a 	mov	r3,r2
  8009a0:	e0bffd17 	ldw	r2,-12(fp)
  8009a4:	10c03e05 	stb	r3,248(r2)
  d->_g103 = d->_g100 && d->_cg102;
  8009a8:	e0bffd17 	ldw	r2,-12(fp)
  8009ac:	108025c3 	ldbu	r2,151(r2)
  8009b0:	10803fcc 	andi	r2,r2,255
  8009b4:	1080201c 	xori	r2,r2,128
  8009b8:	10bfe004 	addi	r2,r2,-128
  8009bc:	10000826 	beq	r2,zero,8009e0 <logic+0x71c>
  8009c0:	e0bffd17 	ldw	r2,-12(fp)
  8009c4:	10803e03 	ldbu	r2,248(r2)
  8009c8:	10803fcc 	andi	r2,r2,255
  8009cc:	1080201c 	xori	r2,r2,128
  8009d0:	10bfe004 	addi	r2,r2,-128
  8009d4:	10000226 	beq	r2,zero,8009e0 <logic+0x71c>
  8009d8:	00800044 	movi	r2,1
  8009dc:	00000106 	br	8009e4 <logic+0x720>
  8009e0:	0005883a 	mov	r2,zero
  8009e4:	1007883a 	mov	r3,r2
  8009e8:	e0bffd17 	ldw	r2,-12(fp)
  8009ec:	10c02685 	stb	r3,154(r2)
  if (d->_g103) {
  8009f0:	e0bffd17 	ldw	r2,-12(fp)
  8009f4:	10802683 	ldbu	r2,154(r2)
  8009f8:	10803fcc 	andi	r2,r2,255
  8009fc:	1080201c 	xori	r2,r2,128
  800a00:	10bfe004 	addi	r2,r2,-128
  800a04:	10000326 	beq	r2,zero,800a14 <logic+0x750>
    d->_PaceMaker_local__Atrig5 = 1;
  800a08:	e0bffd17 	ldw	r2,-12(fp)
  800a0c:	00c00044 	movi	r3,1
  800a10:	10c00bc5 	stb	r3,47(r2)
  }
  d->sleepT = 1000.0;
  800a14:	e0fffd17 	ldw	r3,-12(fp)
  800a18:	18000215 	stw	zero,8(r3)
  800a1c:	009023f4 	movhi	r2,16527
  800a20:	10900004 	addi	r2,r2,16384
  800a24:	18800315 	stw	r2,12(r3)
  d->_g70 = d->_g70 || d->_g76;
  800a28:	e0bffd17 	ldw	r2,-12(fp)
  800a2c:	10802043 	ldbu	r2,129(r2)
  800a30:	10803fcc 	andi	r2,r2,255
  800a34:	1080201c 	xori	r2,r2,128
  800a38:	10bfe004 	addi	r2,r2,-128
  800a3c:	1000061e 	bne	r2,zero,800a58 <logic+0x794>
  800a40:	e0bffd17 	ldw	r2,-12(fp)
  800a44:	10802183 	ldbu	r2,134(r2)
  800a48:	10803fcc 	andi	r2,r2,255
  800a4c:	1080201c 	xori	r2,r2,128
  800a50:	10bfe004 	addi	r2,r2,-128
  800a54:	10000226 	beq	r2,zero,800a60 <logic+0x79c>
  800a58:	00800044 	movi	r2,1
  800a5c:	00000106 	br	800a64 <logic+0x7a0>
  800a60:	0005883a 	mov	r2,zero
  800a64:	1007883a 	mov	r3,r2
  800a68:	e0bffd17 	ldw	r2,-12(fp)
  800a6c:	10c02045 	stb	r3,129(r2)
  d->_cg71 = d->_PaceMaker_local_avi_clk < AVI_VALUE - 1;
  800a70:	e13ffd17 	ldw	r4,-12(fp)
  800a74:	20800d17 	ldw	r2,52(r4)
  800a78:	20c00e17 	ldw	r3,56(r4)
  800a7c:	04000044 	movi	r16,1
  800a80:	000d883a 	mov	r6,zero
  800a84:	01d01cf4 	movhi	r7,16499
  800a88:	39ec0004 	addi	r7,r7,-20480
  800a8c:	1009883a 	mov	r4,r2
  800a90:	180b883a 	mov	r5,r3
  800a94:	0806f2c0 	call	806f2c <__ledf2>
  800a98:	10000116 	blt	r2,zero,800aa0 <logic+0x7dc>
  800a9c:	0021883a 	mov	r16,zero
  800aa0:	8007883a 	mov	r3,r16
  800aa4:	e0bffd17 	ldw	r2,-12(fp)
  800aa8:	10c03b45 	stb	r3,237(r2)
  d->_g76 = d->_g70 && d->_cg71;
  800aac:	e0bffd17 	ldw	r2,-12(fp)
  800ab0:	10802043 	ldbu	r2,129(r2)
  800ab4:	10803fcc 	andi	r2,r2,255
  800ab8:	1080201c 	xori	r2,r2,128
  800abc:	10bfe004 	addi	r2,r2,-128
  800ac0:	10000826 	beq	r2,zero,800ae4 <logic+0x820>
  800ac4:	e0bffd17 	ldw	r2,-12(fp)
  800ac8:	10803b43 	ldbu	r2,237(r2)
  800acc:	10803fcc 	andi	r2,r2,255
  800ad0:	1080201c 	xori	r2,r2,128
  800ad4:	10bfe004 	addi	r2,r2,-128
  800ad8:	10000226 	beq	r2,zero,800ae4 <logic+0x820>
  800adc:	00800044 	movi	r2,1
  800ae0:	00000106 	br	800ae8 <logic+0x824>
  800ae4:	0005883a 	mov	r2,zero
  800ae8:	1007883a 	mov	r3,r2
  800aec:	e0bffd17 	ldw	r2,-12(fp)
  800af0:	10c02185 	stb	r3,134(r2)
  if (d->_g76) {
  800af4:	e0bffd17 	ldw	r2,-12(fp)
  800af8:	10802183 	ldbu	r2,134(r2)
  800afc:	10803fcc 	andi	r2,r2,255
  800b00:	1080201c 	xori	r2,r2,128
  800b04:	10bfe004 	addi	r2,r2,-128
  800b08:	10002a26 	beq	r2,zero,800bb4 <logic+0x8f0>
    d->sleepT = (d->sleepT < (AVI_VALUE - 1 - d->_PaceMaker_local_avi_clk)) ? d->sleepT : (AVI_VALUE - 1 - d->_PaceMaker_local_avi_clk);
  800b0c:	e0bffd17 	ldw	r2,-12(fp)
  800b10:	14000217 	ldw	r16,8(r2)
  800b14:	14400317 	ldw	r17,12(r2)
  800b18:	e13ffd17 	ldw	r4,-12(fp)
  800b1c:	20800d17 	ldw	r2,52(r4)
  800b20:	20c00e17 	ldw	r3,56(r4)
  800b24:	100d883a 	mov	r6,r2
  800b28:	180f883a 	mov	r7,r3
  800b2c:	0009883a 	mov	r4,zero
  800b30:	01501cf4 	movhi	r5,16499
  800b34:	296c0004 	addi	r5,r5,-20480
  800b38:	08070200 	call	807020 <__subdf3>
  800b3c:	1009883a 	mov	r4,r2
  800b40:	180b883a 	mov	r5,r3
  800b44:	2005883a 	mov	r2,r4
  800b48:	2807883a 	mov	r3,r5
  800b4c:	100d883a 	mov	r6,r2
  800b50:	180f883a 	mov	r7,r3
  800b54:	8009883a 	mov	r4,r16
  800b58:	880b883a 	mov	r5,r17
  800b5c:	0806f2c0 	call	806f2c <__ledf2>
  800b60:	1000040e 	bge	r2,zero,800b74 <logic+0x8b0>
  800b64:	e13ffd17 	ldw	r4,-12(fp)
  800b68:	20800217 	ldw	r2,8(r4)
  800b6c:	20c00317 	ldw	r3,12(r4)
  800b70:	00000d06 	br	800ba8 <logic+0x8e4>
  800b74:	e13ffd17 	ldw	r4,-12(fp)
  800b78:	20800d17 	ldw	r2,52(r4)
  800b7c:	20c00e17 	ldw	r3,56(r4)
  800b80:	100d883a 	mov	r6,r2
  800b84:	180f883a 	mov	r7,r3
  800b88:	0009883a 	mov	r4,zero
  800b8c:	01501cf4 	movhi	r5,16499
  800b90:	296c0004 	addi	r5,r5,-20480
  800b94:	08070200 	call	807020 <__subdf3>
  800b98:	1009883a 	mov	r4,r2
  800b9c:	180b883a 	mov	r5,r3
  800ba0:	2005883a 	mov	r2,r4
  800ba4:	2807883a 	mov	r3,r5
  800ba8:	e13ffd17 	ldw	r4,-12(fp)
  800bac:	20800215 	stw	r2,8(r4)
  800bb0:	20c00315 	stw	r3,12(r4)
  }
  d->_cg72 = d->_PaceMaker_local__Atrig2 || d->_PaceMaker_local__Atrig3 || d->_PaceMaker_local__Atrig4 || d->_PaceMaker_local__Atrig5;
  800bb4:	e0bffd17 	ldw	r2,-12(fp)
  800bb8:	10800b03 	ldbu	r2,44(r2)
  800bbc:	10803fcc 	andi	r2,r2,255
  800bc0:	1080201c 	xori	r2,r2,128
  800bc4:	10bfe004 	addi	r2,r2,-128
  800bc8:	1000121e 	bne	r2,zero,800c14 <logic+0x950>
  800bcc:	e0bffd17 	ldw	r2,-12(fp)
  800bd0:	10800b43 	ldbu	r2,45(r2)
  800bd4:	10803fcc 	andi	r2,r2,255
  800bd8:	1080201c 	xori	r2,r2,128
  800bdc:	10bfe004 	addi	r2,r2,-128
  800be0:	10000c1e 	bne	r2,zero,800c14 <logic+0x950>
  800be4:	e0bffd17 	ldw	r2,-12(fp)
  800be8:	10800b83 	ldbu	r2,46(r2)
  800bec:	10803fcc 	andi	r2,r2,255
  800bf0:	1080201c 	xori	r2,r2,128
  800bf4:	10bfe004 	addi	r2,r2,-128
  800bf8:	1000061e 	bne	r2,zero,800c14 <logic+0x950>
  800bfc:	e0bffd17 	ldw	r2,-12(fp)
  800c00:	10800bc3 	ldbu	r2,47(r2)
  800c04:	10803fcc 	andi	r2,r2,255
  800c08:	1080201c 	xori	r2,r2,128
  800c0c:	10bfe004 	addi	r2,r2,-128
  800c10:	10000226 	beq	r2,zero,800c1c <logic+0x958>
  800c14:	00800044 	movi	r2,1
  800c18:	00000106 	br	800c20 <logic+0x95c>
  800c1c:	0005883a 	mov	r2,zero
  800c20:	1007883a 	mov	r3,r2
  800c24:	e0bffd17 	ldw	r2,-12(fp)
  800c28:	10c03b05 	stb	r3,236(r2)
  d->_g71 = d->_g70 && !d->_cg71;
  800c2c:	e0bffd17 	ldw	r2,-12(fp)
  800c30:	10802043 	ldbu	r2,129(r2)
  800c34:	10803fcc 	andi	r2,r2,255
  800c38:	1080201c 	xori	r2,r2,128
  800c3c:	10bfe004 	addi	r2,r2,-128
  800c40:	10000826 	beq	r2,zero,800c64 <logic+0x9a0>
  800c44:	e0bffd17 	ldw	r2,-12(fp)
  800c48:	10803b43 	ldbu	r2,237(r2)
  800c4c:	10803fcc 	andi	r2,r2,255
  800c50:	1080201c 	xori	r2,r2,128
  800c54:	10bfe004 	addi	r2,r2,-128
  800c58:	1000021e 	bne	r2,zero,800c64 <logic+0x9a0>
  800c5c:	00800044 	movi	r2,1
  800c60:	00000106 	br	800c68 <logic+0x9a4>
  800c64:	0005883a 	mov	r2,zero
  800c68:	1007883a 	mov	r3,r2
  800c6c:	e0bffd17 	ldw	r2,-12(fp)
  800c70:	10c02085 	stb	r3,130(r2)
  d->_cg74 = d->_PaceMaker_local__Atrig2 || d->_PaceMaker_local__Atrig3 || d->_PaceMaker_local__Atrig4 || d->_PaceMaker_local__Atrig5;
  800c74:	e0bffd17 	ldw	r2,-12(fp)
  800c78:	10800b03 	ldbu	r2,44(r2)
  800c7c:	10803fcc 	andi	r2,r2,255
  800c80:	1080201c 	xori	r2,r2,128
  800c84:	10bfe004 	addi	r2,r2,-128
  800c88:	1000121e 	bne	r2,zero,800cd4 <logic+0xa10>
  800c8c:	e0bffd17 	ldw	r2,-12(fp)
  800c90:	10800b43 	ldbu	r2,45(r2)
  800c94:	10803fcc 	andi	r2,r2,255
  800c98:	1080201c 	xori	r2,r2,128
  800c9c:	10bfe004 	addi	r2,r2,-128
  800ca0:	10000c1e 	bne	r2,zero,800cd4 <logic+0xa10>
  800ca4:	e0bffd17 	ldw	r2,-12(fp)
  800ca8:	10800b83 	ldbu	r2,46(r2)
  800cac:	10803fcc 	andi	r2,r2,255
  800cb0:	1080201c 	xori	r2,r2,128
  800cb4:	10bfe004 	addi	r2,r2,-128
  800cb8:	1000061e 	bne	r2,zero,800cd4 <logic+0xa10>
  800cbc:	e0bffd17 	ldw	r2,-12(fp)
  800cc0:	10800bc3 	ldbu	r2,47(r2)
  800cc4:	10803fcc 	andi	r2,r2,255
  800cc8:	1080201c 	xori	r2,r2,128
  800ccc:	10bfe004 	addi	r2,r2,-128
  800cd0:	10000226 	beq	r2,zero,800cdc <logic+0xa18>
  800cd4:	00800044 	movi	r2,1
  800cd8:	00000106 	br	800ce0 <logic+0xa1c>
  800cdc:	0005883a 	mov	r2,zero
  800ce0:	1007883a 	mov	r3,r2
  800ce4:	e0bffd17 	ldw	r2,-12(fp)
  800ce8:	10c03b85 	stb	r3,238(r2)
  d->_g73 = (d->_g76 && d->_cg72) || (d->_g71 && d->_cg74);
  800cec:	e0bffd17 	ldw	r2,-12(fp)
  800cf0:	10802183 	ldbu	r2,134(r2)
  800cf4:	10803fcc 	andi	r2,r2,255
  800cf8:	1080201c 	xori	r2,r2,128
  800cfc:	10bfe004 	addi	r2,r2,-128
  800d00:	10000626 	beq	r2,zero,800d1c <logic+0xa58>
  800d04:	e0bffd17 	ldw	r2,-12(fp)
  800d08:	10803b03 	ldbu	r2,236(r2)
  800d0c:	10803fcc 	andi	r2,r2,255
  800d10:	1080201c 	xori	r2,r2,128
  800d14:	10bfe004 	addi	r2,r2,-128
  800d18:	10000c1e 	bne	r2,zero,800d4c <logic+0xa88>
  800d1c:	e0bffd17 	ldw	r2,-12(fp)
  800d20:	10802083 	ldbu	r2,130(r2)
  800d24:	10803fcc 	andi	r2,r2,255
  800d28:	1080201c 	xori	r2,r2,128
  800d2c:	10bfe004 	addi	r2,r2,-128
  800d30:	10000826 	beq	r2,zero,800d54 <logic+0xa90>
  800d34:	e0bffd17 	ldw	r2,-12(fp)
  800d38:	10803b83 	ldbu	r2,238(r2)
  800d3c:	10803fcc 	andi	r2,r2,255
  800d40:	1080201c 	xori	r2,r2,128
  800d44:	10bfe004 	addi	r2,r2,-128
  800d48:	10000226 	beq	r2,zero,800d54 <logic+0xa90>
  800d4c:	00800044 	movi	r2,1
  800d50:	00000106 	br	800d58 <logic+0xa94>
  800d54:	0005883a 	mov	r2,zero
  800d58:	1007883a 	mov	r3,r2
  800d5c:	e0bffd17 	ldw	r2,-12(fp)
  800d60:	10c02105 	stb	r3,132(r2)
  d->_g87 = d->_pg68;
  800d64:	e0bffd17 	ldw	r2,-12(fp)
  800d68:	10c05283 	ldbu	r3,330(r2)
  800d6c:	e0bffd17 	ldw	r2,-12(fp)
  800d70:	10c02385 	stb	r3,142(r2)
  d->_g81 = d->_pg104;
  800d74:	e0bffd17 	ldw	r2,-12(fp)
  800d78:	10c052c3 	ldbu	r3,331(r2)
  800d7c:	e0bffd17 	ldw	r2,-12(fp)
  800d80:	10c02245 	stb	r3,137(r2)
  d->_g84_e2 = !(d->_g87 || d->_g81);
  800d84:	e0bffd17 	ldw	r2,-12(fp)
  800d88:	10802383 	ldbu	r2,142(r2)
  800d8c:	10803fcc 	andi	r2,r2,255
  800d90:	1080201c 	xori	r2,r2,128
  800d94:	10bfe004 	addi	r2,r2,-128
  800d98:	1000081e 	bne	r2,zero,800dbc <logic+0xaf8>
  800d9c:	e0bffd17 	ldw	r2,-12(fp)
  800da0:	10802243 	ldbu	r2,137(r2)
  800da4:	10803fcc 	andi	r2,r2,255
  800da8:	1080201c 	xori	r2,r2,128
  800dac:	10bfe004 	addi	r2,r2,-128
  800db0:	1000021e 	bne	r2,zero,800dbc <logic+0xaf8>
  800db4:	00800044 	movi	r2,1
  800db8:	00000106 	br	800dc0 <logic+0xafc>
  800dbc:	0005883a 	mov	r2,zero
  800dc0:	1007883a 	mov	r3,r2
  800dc4:	e0bffd17 	ldw	r2,-12(fp)
  800dc8:	10c04c85 	stb	r3,306(r2)
  d->_g81 = d->_g81 || d->_g87;
  800dcc:	e0bffd17 	ldw	r2,-12(fp)
  800dd0:	10802243 	ldbu	r2,137(r2)
  800dd4:	10803fcc 	andi	r2,r2,255
  800dd8:	1080201c 	xori	r2,r2,128
  800ddc:	10bfe004 	addi	r2,r2,-128
  800de0:	1000061e 	bne	r2,zero,800dfc <logic+0xb38>
  800de4:	e0bffd17 	ldw	r2,-12(fp)
  800de8:	10802383 	ldbu	r2,142(r2)
  800dec:	10803fcc 	andi	r2,r2,255
  800df0:	1080201c 	xori	r2,r2,128
  800df4:	10bfe004 	addi	r2,r2,-128
  800df8:	10000226 	beq	r2,zero,800e04 <logic+0xb40>
  800dfc:	00800044 	movi	r2,1
  800e00:	00000106 	br	800e08 <logic+0xb44>
  800e04:	0005883a 	mov	r2,zero
  800e08:	1007883a 	mov	r3,r2
  800e0c:	e0bffd17 	ldw	r2,-12(fp)
  800e10:	10c02245 	stb	r3,137(r2)
  d->_cg82 = d->_PaceMaker_local_avi_clk < AVI_VALUE - 1;
  800e14:	e13ffd17 	ldw	r4,-12(fp)
  800e18:	20800d17 	ldw	r2,52(r4)
  800e1c:	20c00e17 	ldw	r3,56(r4)
  800e20:	04000044 	movi	r16,1
  800e24:	000d883a 	mov	r6,zero
  800e28:	01d01cf4 	movhi	r7,16499
  800e2c:	39ec0004 	addi	r7,r7,-20480
  800e30:	1009883a 	mov	r4,r2
  800e34:	180b883a 	mov	r5,r3
  800e38:	0806f2c0 	call	806f2c <__ledf2>
  800e3c:	10000116 	blt	r2,zero,800e44 <logic+0xb80>
  800e40:	0021883a 	mov	r16,zero
  800e44:	8007883a 	mov	r3,r16
  800e48:	e0bffd17 	ldw	r2,-12(fp)
  800e4c:	10c03cc5 	stb	r3,243(r2)
  d->_g87 = d->_g81 && d->_cg82;
  800e50:	e0bffd17 	ldw	r2,-12(fp)
  800e54:	10802243 	ldbu	r2,137(r2)
  800e58:	10803fcc 	andi	r2,r2,255
  800e5c:	1080201c 	xori	r2,r2,128
  800e60:	10bfe004 	addi	r2,r2,-128
  800e64:	10000826 	beq	r2,zero,800e88 <logic+0xbc4>
  800e68:	e0bffd17 	ldw	r2,-12(fp)
  800e6c:	10803cc3 	ldbu	r2,243(r2)
  800e70:	10803fcc 	andi	r2,r2,255
  800e74:	1080201c 	xori	r2,r2,128
  800e78:	10bfe004 	addi	r2,r2,-128
  800e7c:	10000226 	beq	r2,zero,800e88 <logic+0xbc4>
  800e80:	00800044 	movi	r2,1
  800e84:	00000106 	br	800e8c <logic+0xbc8>
  800e88:	0005883a 	mov	r2,zero
  800e8c:	1007883a 	mov	r3,r2
  800e90:	e0bffd17 	ldw	r2,-12(fp)
  800e94:	10c02385 	stb	r3,142(r2)
  if (d->_g87) {
  800e98:	e0bffd17 	ldw	r2,-12(fp)
  800e9c:	10802383 	ldbu	r2,142(r2)
  800ea0:	10803fcc 	andi	r2,r2,255
  800ea4:	1080201c 	xori	r2,r2,128
  800ea8:	10bfe004 	addi	r2,r2,-128
  800eac:	10002a26 	beq	r2,zero,800f58 <logic+0xc94>
    d->sleepT = (d->sleepT < (AVI_VALUE - 1 - d->_PaceMaker_local_avi_clk)) ? d->sleepT : (AVI_VALUE - 1 - d->_PaceMaker_local_avi_clk);
  800eb0:	e0bffd17 	ldw	r2,-12(fp)
  800eb4:	14000217 	ldw	r16,8(r2)
  800eb8:	14400317 	ldw	r17,12(r2)
  800ebc:	e13ffd17 	ldw	r4,-12(fp)
  800ec0:	20800d17 	ldw	r2,52(r4)
  800ec4:	20c00e17 	ldw	r3,56(r4)
  800ec8:	100d883a 	mov	r6,r2
  800ecc:	180f883a 	mov	r7,r3
  800ed0:	0009883a 	mov	r4,zero
  800ed4:	01501cf4 	movhi	r5,16499
  800ed8:	296c0004 	addi	r5,r5,-20480
  800edc:	08070200 	call	807020 <__subdf3>
  800ee0:	1009883a 	mov	r4,r2
  800ee4:	180b883a 	mov	r5,r3
  800ee8:	2005883a 	mov	r2,r4
  800eec:	2807883a 	mov	r3,r5
  800ef0:	100d883a 	mov	r6,r2
  800ef4:	180f883a 	mov	r7,r3
  800ef8:	8009883a 	mov	r4,r16
  800efc:	880b883a 	mov	r5,r17
  800f00:	0806f2c0 	call	806f2c <__ledf2>
  800f04:	1000040e 	bge	r2,zero,800f18 <logic+0xc54>
  800f08:	e13ffd17 	ldw	r4,-12(fp)
  800f0c:	20800217 	ldw	r2,8(r4)
  800f10:	20c00317 	ldw	r3,12(r4)
  800f14:	00000d06 	br	800f4c <logic+0xc88>
  800f18:	e13ffd17 	ldw	r4,-12(fp)
  800f1c:	20800d17 	ldw	r2,52(r4)
  800f20:	20c00e17 	ldw	r3,56(r4)
  800f24:	100d883a 	mov	r6,r2
  800f28:	180f883a 	mov	r7,r3
  800f2c:	0009883a 	mov	r4,zero
  800f30:	01501cf4 	movhi	r5,16499
  800f34:	296c0004 	addi	r5,r5,-20480
  800f38:	08070200 	call	807020 <__subdf3>
  800f3c:	1009883a 	mov	r4,r2
  800f40:	180b883a 	mov	r5,r3
  800f44:	2005883a 	mov	r2,r4
  800f48:	2807883a 	mov	r3,r5
  800f4c:	e13ffd17 	ldw	r4,-12(fp)
  800f50:	20800215 	stw	r2,8(r4)
  800f54:	20c00315 	stw	r3,12(r4)
  }
  d->_cg83 = d->_PaceMaker_local__Atrig2 || d->_PaceMaker_local__Atrig3 || d->_PaceMaker_local__Atrig4 || d->_PaceMaker_local__Atrig5;
  800f58:	e0bffd17 	ldw	r2,-12(fp)
  800f5c:	10800b03 	ldbu	r2,44(r2)
  800f60:	10803fcc 	andi	r2,r2,255
  800f64:	1080201c 	xori	r2,r2,128
  800f68:	10bfe004 	addi	r2,r2,-128
  800f6c:	1000121e 	bne	r2,zero,800fb8 <logic+0xcf4>
  800f70:	e0bffd17 	ldw	r2,-12(fp)
  800f74:	10800b43 	ldbu	r2,45(r2)
  800f78:	10803fcc 	andi	r2,r2,255
  800f7c:	1080201c 	xori	r2,r2,128
  800f80:	10bfe004 	addi	r2,r2,-128
  800f84:	10000c1e 	bne	r2,zero,800fb8 <logic+0xcf4>
  800f88:	e0bffd17 	ldw	r2,-12(fp)
  800f8c:	10800b83 	ldbu	r2,46(r2)
  800f90:	10803fcc 	andi	r2,r2,255
  800f94:	1080201c 	xori	r2,r2,128
  800f98:	10bfe004 	addi	r2,r2,-128
  800f9c:	1000061e 	bne	r2,zero,800fb8 <logic+0xcf4>
  800fa0:	e0bffd17 	ldw	r2,-12(fp)
  800fa4:	10800bc3 	ldbu	r2,47(r2)
  800fa8:	10803fcc 	andi	r2,r2,255
  800fac:	1080201c 	xori	r2,r2,128
  800fb0:	10bfe004 	addi	r2,r2,-128
  800fb4:	10000226 	beq	r2,zero,800fc0 <logic+0xcfc>
  800fb8:	00800044 	movi	r2,1
  800fbc:	00000106 	br	800fc4 <logic+0xd00>
  800fc0:	0005883a 	mov	r2,zero
  800fc4:	1007883a 	mov	r3,r2
  800fc8:	e0bffd17 	ldw	r2,-12(fp)
  800fcc:	10c03c85 	stb	r3,242(r2)
  d->_g82 = d->_g81 && !d->_cg82;
  800fd0:	e0bffd17 	ldw	r2,-12(fp)
  800fd4:	10802243 	ldbu	r2,137(r2)
  800fd8:	10803fcc 	andi	r2,r2,255
  800fdc:	1080201c 	xori	r2,r2,128
  800fe0:	10bfe004 	addi	r2,r2,-128
  800fe4:	10000826 	beq	r2,zero,801008 <logic+0xd44>
  800fe8:	e0bffd17 	ldw	r2,-12(fp)
  800fec:	10803cc3 	ldbu	r2,243(r2)
  800ff0:	10803fcc 	andi	r2,r2,255
  800ff4:	1080201c 	xori	r2,r2,128
  800ff8:	10bfe004 	addi	r2,r2,-128
  800ffc:	1000021e 	bne	r2,zero,801008 <logic+0xd44>
  801000:	00800044 	movi	r2,1
  801004:	00000106 	br	80100c <logic+0xd48>
  801008:	0005883a 	mov	r2,zero
  80100c:	1007883a 	mov	r3,r2
  801010:	e0bffd17 	ldw	r2,-12(fp)
  801014:	10c02285 	stb	r3,138(r2)
  d->_cg85 = d->_PaceMaker_local__Atrig2 || d->_PaceMaker_local__Atrig3 || d->_PaceMaker_local__Atrig4 || d->_PaceMaker_local__Atrig5;
  801018:	e0bffd17 	ldw	r2,-12(fp)
  80101c:	10800b03 	ldbu	r2,44(r2)
  801020:	10803fcc 	andi	r2,r2,255
  801024:	1080201c 	xori	r2,r2,128
  801028:	10bfe004 	addi	r2,r2,-128
  80102c:	1000121e 	bne	r2,zero,801078 <logic+0xdb4>
  801030:	e0bffd17 	ldw	r2,-12(fp)
  801034:	10800b43 	ldbu	r2,45(r2)
  801038:	10803fcc 	andi	r2,r2,255
  80103c:	1080201c 	xori	r2,r2,128
  801040:	10bfe004 	addi	r2,r2,-128
  801044:	10000c1e 	bne	r2,zero,801078 <logic+0xdb4>
  801048:	e0bffd17 	ldw	r2,-12(fp)
  80104c:	10800b83 	ldbu	r2,46(r2)
  801050:	10803fcc 	andi	r2,r2,255
  801054:	1080201c 	xori	r2,r2,128
  801058:	10bfe004 	addi	r2,r2,-128
  80105c:	1000061e 	bne	r2,zero,801078 <logic+0xdb4>
  801060:	e0bffd17 	ldw	r2,-12(fp)
  801064:	10800bc3 	ldbu	r2,47(r2)
  801068:	10803fcc 	andi	r2,r2,255
  80106c:	1080201c 	xori	r2,r2,128
  801070:	10bfe004 	addi	r2,r2,-128
  801074:	10000226 	beq	r2,zero,801080 <logic+0xdbc>
  801078:	00800044 	movi	r2,1
  80107c:	00000106 	br	801084 <logic+0xdc0>
  801080:	0005883a 	mov	r2,zero
  801084:	1007883a 	mov	r3,r2
  801088:	e0bffd17 	ldw	r2,-12(fp)
  80108c:	10c03d05 	stb	r3,244(r2)
  d->_g84 = (d->_g87 && d->_cg83) || (d->_g82 && d->_cg85);
  801090:	e0bffd17 	ldw	r2,-12(fp)
  801094:	10802383 	ldbu	r2,142(r2)
  801098:	10803fcc 	andi	r2,r2,255
  80109c:	1080201c 	xori	r2,r2,128
  8010a0:	10bfe004 	addi	r2,r2,-128
  8010a4:	10000626 	beq	r2,zero,8010c0 <logic+0xdfc>
  8010a8:	e0bffd17 	ldw	r2,-12(fp)
  8010ac:	10803c83 	ldbu	r2,242(r2)
  8010b0:	10803fcc 	andi	r2,r2,255
  8010b4:	1080201c 	xori	r2,r2,128
  8010b8:	10bfe004 	addi	r2,r2,-128
  8010bc:	10000c1e 	bne	r2,zero,8010f0 <logic+0xe2c>
  8010c0:	e0bffd17 	ldw	r2,-12(fp)
  8010c4:	10802283 	ldbu	r2,138(r2)
  8010c8:	10803fcc 	andi	r2,r2,255
  8010cc:	1080201c 	xori	r2,r2,128
  8010d0:	10bfe004 	addi	r2,r2,-128
  8010d4:	10000826 	beq	r2,zero,8010f8 <logic+0xe34>
  8010d8:	e0bffd17 	ldw	r2,-12(fp)
  8010dc:	10803d03 	ldbu	r2,244(r2)
  8010e0:	10803fcc 	andi	r2,r2,255
  8010e4:	1080201c 	xori	r2,r2,128
  8010e8:	10bfe004 	addi	r2,r2,-128
  8010ec:	10000226 	beq	r2,zero,8010f8 <logic+0xe34>
  8010f0:	00800044 	movi	r2,1
  8010f4:	00000106 	br	8010fc <logic+0xe38>
  8010f8:	0005883a 	mov	r2,zero
  8010fc:	1007883a 	mov	r3,r2
  801100:	e0bffd17 	ldw	r2,-12(fp)
  801104:	10c02305 	stb	r3,140(r2)
  d->_g92_e3 = !d->_g91;
  801108:	e0bffd17 	ldw	r2,-12(fp)
  80110c:	10802403 	ldbu	r2,144(r2)
  801110:	10803fcc 	andi	r2,r2,255
  801114:	1080201c 	xori	r2,r2,128
  801118:	10bfe004 	addi	r2,r2,-128
  80111c:	1005003a 	cmpeq	r2,r2,zero
  801120:	1007883a 	mov	r3,r2
  801124:	e0bffd17 	ldw	r2,-12(fp)
  801128:	10c04cc5 	stb	r3,307(r2)
  d->_cg91 = d->_PaceMaker_local__Atrig2 || d->_PaceMaker_local__Atrig3 || d->_PaceMaker_local__Atrig4 || d->_PaceMaker_local__Atrig5;
  80112c:	e0bffd17 	ldw	r2,-12(fp)
  801130:	10800b03 	ldbu	r2,44(r2)
  801134:	10803fcc 	andi	r2,r2,255
  801138:	1080201c 	xori	r2,r2,128
  80113c:	10bfe004 	addi	r2,r2,-128
  801140:	1000121e 	bne	r2,zero,80118c <logic+0xec8>
  801144:	e0bffd17 	ldw	r2,-12(fp)
  801148:	10800b43 	ldbu	r2,45(r2)
  80114c:	10803fcc 	andi	r2,r2,255
  801150:	1080201c 	xori	r2,r2,128
  801154:	10bfe004 	addi	r2,r2,-128
  801158:	10000c1e 	bne	r2,zero,80118c <logic+0xec8>
  80115c:	e0bffd17 	ldw	r2,-12(fp)
  801160:	10800b83 	ldbu	r2,46(r2)
  801164:	10803fcc 	andi	r2,r2,255
  801168:	1080201c 	xori	r2,r2,128
  80116c:	10bfe004 	addi	r2,r2,-128
  801170:	1000061e 	bne	r2,zero,80118c <logic+0xec8>
  801174:	e0bffd17 	ldw	r2,-12(fp)
  801178:	10800bc3 	ldbu	r2,47(r2)
  80117c:	10803fcc 	andi	r2,r2,255
  801180:	1080201c 	xori	r2,r2,128
  801184:	10bfe004 	addi	r2,r2,-128
  801188:	10000226 	beq	r2,zero,801194 <logic+0xed0>
  80118c:	00800044 	movi	r2,1
  801190:	00000106 	br	801198 <logic+0xed4>
  801194:	0005883a 	mov	r2,zero
  801198:	1007883a 	mov	r3,r2
  80119c:	e0bffd17 	ldw	r2,-12(fp)
  8011a0:	10c03dc5 	stb	r3,247(r2)
  d->_g92 = d->_g91 && d->_cg91;
  8011a4:	e0bffd17 	ldw	r2,-12(fp)
  8011a8:	10802403 	ldbu	r2,144(r2)
  8011ac:	10803fcc 	andi	r2,r2,255
  8011b0:	1080201c 	xori	r2,r2,128
  8011b4:	10bfe004 	addi	r2,r2,-128
  8011b8:	10000826 	beq	r2,zero,8011dc <logic+0xf18>
  8011bc:	e0bffd17 	ldw	r2,-12(fp)
  8011c0:	10803dc3 	ldbu	r2,247(r2)
  8011c4:	10803fcc 	andi	r2,r2,255
  8011c8:	1080201c 	xori	r2,r2,128
  8011cc:	10bfe004 	addi	r2,r2,-128
  8011d0:	10000226 	beq	r2,zero,8011dc <logic+0xf18>
  8011d4:	00800044 	movi	r2,1
  8011d8:	00000106 	br	8011e0 <logic+0xf1c>
  8011dc:	0005883a 	mov	r2,zero
  8011e0:	1007883a 	mov	r3,r2
  8011e4:	e0bffd17 	ldw	r2,-12(fp)
  8011e8:	10c02445 	stb	r3,145(r2)
  d->_g95 = !d->_g95;
  8011ec:	e0bffd17 	ldw	r2,-12(fp)
  8011f0:	10802483 	ldbu	r2,146(r2)
  8011f4:	10803fcc 	andi	r2,r2,255
  8011f8:	1080201c 	xori	r2,r2,128
  8011fc:	10bfe004 	addi	r2,r2,-128
  801200:	1005003a 	cmpeq	r2,r2,zero
  801204:	1007883a 	mov	r3,r2
  801208:	e0bffd17 	ldw	r2,-12(fp)
  80120c:	10c02485 	stb	r3,146(r2)
  d->_g101 = d->_g96 || d->_g99 || d->_g101 || d->_g103;
  801210:	e0bffd17 	ldw	r2,-12(fp)
  801214:	108024c3 	ldbu	r2,147(r2)
  801218:	10803fcc 	andi	r2,r2,255
  80121c:	1080201c 	xori	r2,r2,128
  801220:	10bfe004 	addi	r2,r2,-128
  801224:	1000121e 	bne	r2,zero,801270 <logic+0xfac>
  801228:	e0bffd17 	ldw	r2,-12(fp)
  80122c:	10802583 	ldbu	r2,150(r2)
  801230:	10803fcc 	andi	r2,r2,255
  801234:	1080201c 	xori	r2,r2,128
  801238:	10bfe004 	addi	r2,r2,-128
  80123c:	10000c1e 	bne	r2,zero,801270 <logic+0xfac>
  801240:	e0bffd17 	ldw	r2,-12(fp)
  801244:	10802603 	ldbu	r2,152(r2)
  801248:	10803fcc 	andi	r2,r2,255
  80124c:	1080201c 	xori	r2,r2,128
  801250:	10bfe004 	addi	r2,r2,-128
  801254:	1000061e 	bne	r2,zero,801270 <logic+0xfac>
  801258:	e0bffd17 	ldw	r2,-12(fp)
  80125c:	10802683 	ldbu	r2,154(r2)
  801260:	10803fcc 	andi	r2,r2,255
  801264:	1080201c 	xori	r2,r2,128
  801268:	10bfe004 	addi	r2,r2,-128
  80126c:	10000226 	beq	r2,zero,801278 <logic+0xfb4>
  801270:	00800044 	movi	r2,1
  801274:	00000106 	br	80127c <logic+0xfb8>
  801278:	0005883a 	mov	r2,zero
  80127c:	1007883a 	mov	r3,r2
  801280:	e0bffd17 	ldw	r2,-12(fp)
  801284:	10c02605 	stb	r3,152(r2)
  d->_g96 = (d->_g73_e1 || d->_g73) && (d->_g84_e2 || d->_g84) && (d->_g92_e3 || d->_g92) && (d->_g95 || d->_g101) && (d->_g73 || d->_g84 || d->_g92 || d->_g101);
  801288:	e0bffd17 	ldw	r2,-12(fp)
  80128c:	10804c43 	ldbu	r2,305(r2)
  801290:	10803fcc 	andi	r2,r2,255
  801294:	1080201c 	xori	r2,r2,128
  801298:	10bfe004 	addi	r2,r2,-128
  80129c:	1000061e 	bne	r2,zero,8012b8 <logic+0xff4>
  8012a0:	e0bffd17 	ldw	r2,-12(fp)
  8012a4:	10802103 	ldbu	r2,132(r2)
  8012a8:	10803fcc 	andi	r2,r2,255
  8012ac:	1080201c 	xori	r2,r2,128
  8012b0:	10bfe004 	addi	r2,r2,-128
  8012b4:	10003e26 	beq	r2,zero,8013b0 <logic+0x10ec>
  8012b8:	e0bffd17 	ldw	r2,-12(fp)
  8012bc:	10804c83 	ldbu	r2,306(r2)
  8012c0:	10803fcc 	andi	r2,r2,255
  8012c4:	1080201c 	xori	r2,r2,128
  8012c8:	10bfe004 	addi	r2,r2,-128
  8012cc:	1000061e 	bne	r2,zero,8012e8 <logic+0x1024>
  8012d0:	e0bffd17 	ldw	r2,-12(fp)
  8012d4:	10802303 	ldbu	r2,140(r2)
  8012d8:	10803fcc 	andi	r2,r2,255
  8012dc:	1080201c 	xori	r2,r2,128
  8012e0:	10bfe004 	addi	r2,r2,-128
  8012e4:	10003226 	beq	r2,zero,8013b0 <logic+0x10ec>
  8012e8:	e0bffd17 	ldw	r2,-12(fp)
  8012ec:	10804cc3 	ldbu	r2,307(r2)
  8012f0:	10803fcc 	andi	r2,r2,255
  8012f4:	1080201c 	xori	r2,r2,128
  8012f8:	10bfe004 	addi	r2,r2,-128
  8012fc:	1000061e 	bne	r2,zero,801318 <logic+0x1054>
  801300:	e0bffd17 	ldw	r2,-12(fp)
  801304:	10802443 	ldbu	r2,145(r2)
  801308:	10803fcc 	andi	r2,r2,255
  80130c:	1080201c 	xori	r2,r2,128
  801310:	10bfe004 	addi	r2,r2,-128
  801314:	10002626 	beq	r2,zero,8013b0 <logic+0x10ec>
  801318:	e0bffd17 	ldw	r2,-12(fp)
  80131c:	10802483 	ldbu	r2,146(r2)
  801320:	10803fcc 	andi	r2,r2,255
  801324:	1080201c 	xori	r2,r2,128
  801328:	10bfe004 	addi	r2,r2,-128
  80132c:	1000061e 	bne	r2,zero,801348 <logic+0x1084>
  801330:	e0bffd17 	ldw	r2,-12(fp)
  801334:	10802603 	ldbu	r2,152(r2)
  801338:	10803fcc 	andi	r2,r2,255
  80133c:	1080201c 	xori	r2,r2,128
  801340:	10bfe004 	addi	r2,r2,-128
  801344:	10001a26 	beq	r2,zero,8013b0 <logic+0x10ec>
  801348:	e0bffd17 	ldw	r2,-12(fp)
  80134c:	10802103 	ldbu	r2,132(r2)
  801350:	10803fcc 	andi	r2,r2,255
  801354:	1080201c 	xori	r2,r2,128
  801358:	10bfe004 	addi	r2,r2,-128
  80135c:	1000121e 	bne	r2,zero,8013a8 <logic+0x10e4>
  801360:	e0bffd17 	ldw	r2,-12(fp)
  801364:	10802303 	ldbu	r2,140(r2)
  801368:	10803fcc 	andi	r2,r2,255
  80136c:	1080201c 	xori	r2,r2,128
  801370:	10bfe004 	addi	r2,r2,-128
  801374:	10000c1e 	bne	r2,zero,8013a8 <logic+0x10e4>
  801378:	e0bffd17 	ldw	r2,-12(fp)
  80137c:	10802443 	ldbu	r2,145(r2)
  801380:	10803fcc 	andi	r2,r2,255
  801384:	1080201c 	xori	r2,r2,128
  801388:	10bfe004 	addi	r2,r2,-128
  80138c:	1000061e 	bne	r2,zero,8013a8 <logic+0x10e4>
  801390:	e0bffd17 	ldw	r2,-12(fp)
  801394:	10802603 	ldbu	r2,152(r2)
  801398:	10803fcc 	andi	r2,r2,255
  80139c:	1080201c 	xori	r2,r2,128
  8013a0:	10bfe004 	addi	r2,r2,-128
  8013a4:	10000226 	beq	r2,zero,8013b0 <logic+0x10ec>
  8013a8:	00800044 	movi	r2,1
  8013ac:	00000106 	br	8013b4 <logic+0x10f0>
  8013b0:	0005883a 	mov	r2,zero
  8013b4:	1007883a 	mov	r3,r2
  8013b8:	e0bffd17 	ldw	r2,-12(fp)
  8013bc:	10c024c5 	stb	r3,147(r2)
  d->_cg104 = d->_PaceMaker_local__Atrig2;
  8013c0:	e0bffd17 	ldw	r2,-12(fp)
  8013c4:	10c00b03 	ldbu	r3,44(r2)
  8013c8:	e0bffd17 	ldw	r2,-12(fp)
  8013cc:	10c03a05 	stb	r3,232(r2)
  d->_g99 = d->_g96 && !d->_cg104;
  8013d0:	e0bffd17 	ldw	r2,-12(fp)
  8013d4:	108024c3 	ldbu	r2,147(r2)
  8013d8:	10803fcc 	andi	r2,r2,255
  8013dc:	1080201c 	xori	r2,r2,128
  8013e0:	10bfe004 	addi	r2,r2,-128
  8013e4:	10000826 	beq	r2,zero,801408 <logic+0x1144>
  8013e8:	e0bffd17 	ldw	r2,-12(fp)
  8013ec:	10803a03 	ldbu	r2,232(r2)
  8013f0:	10803fcc 	andi	r2,r2,255
  8013f4:	1080201c 	xori	r2,r2,128
  8013f8:	10bfe004 	addi	r2,r2,-128
  8013fc:	1000021e 	bne	r2,zero,801408 <logic+0x1144>
  801400:	00800044 	movi	r2,1
  801404:	00000106 	br	80140c <logic+0x1148>
  801408:	0005883a 	mov	r2,zero
  80140c:	1007883a 	mov	r3,r2
  801410:	e0bffd17 	ldw	r2,-12(fp)
  801414:	10c02585 	stb	r3,150(r2)
  d->_cg105 = d->_PaceMaker_local__Atrig3;
  801418:	e0bffd17 	ldw	r2,-12(fp)
  80141c:	10c00b43 	ldbu	r3,45(r2)
  801420:	e0bffd17 	ldw	r2,-12(fp)
  801424:	10c03f05 	stb	r3,252(r2)
  d->_g103 = d->_g99 && d->_cg105;
  801428:	e0bffd17 	ldw	r2,-12(fp)
  80142c:	10802583 	ldbu	r2,150(r2)
  801430:	10803fcc 	andi	r2,r2,255
  801434:	1080201c 	xori	r2,r2,128
  801438:	10bfe004 	addi	r2,r2,-128
  80143c:	10000826 	beq	r2,zero,801460 <logic+0x119c>
  801440:	e0bffd17 	ldw	r2,-12(fp)
  801444:	10803f03 	ldbu	r2,252(r2)
  801448:	10803fcc 	andi	r2,r2,255
  80144c:	1080201c 	xori	r2,r2,128
  801450:	10bfe004 	addi	r2,r2,-128
  801454:	10000226 	beq	r2,zero,801460 <logic+0x119c>
  801458:	00800044 	movi	r2,1
  80145c:	00000106 	br	801464 <logic+0x11a0>
  801460:	0005883a 	mov	r2,zero
  801464:	1007883a 	mov	r3,r2
  801468:	e0bffd17 	ldw	r2,-12(fp)
  80146c:	10c02685 	stb	r3,154(r2)
  if (d->_g103) {
  801470:	e0bffd17 	ldw	r2,-12(fp)
  801474:	10802683 	ldbu	r2,154(r2)
  801478:	10803fcc 	andi	r2,r2,255
  80147c:	1080201c 	xori	r2,r2,128
  801480:	10bfe004 	addi	r2,r2,-128
  801484:	10000626 	beq	r2,zero,8014a0 <logic+0x11dc>
    d->VP |= 1;
  801488:	e0bffd17 	ldw	r2,-12(fp)
  80148c:	108004c3 	ldbu	r2,19(r2)
  801490:	10800054 	ori	r2,r2,1
  801494:	1007883a 	mov	r3,r2
  801498:	e0bffd17 	ldw	r2,-12(fp)
  80149c:	10c004c5 	stb	r3,19(r2)
  }
  d->_g92_e3 = d->_g99 && !d->_cg105;
  8014a0:	e0bffd17 	ldw	r2,-12(fp)
  8014a4:	10802583 	ldbu	r2,150(r2)
  8014a8:	10803fcc 	andi	r2,r2,255
  8014ac:	1080201c 	xori	r2,r2,128
  8014b0:	10bfe004 	addi	r2,r2,-128
  8014b4:	10000826 	beq	r2,zero,8014d8 <logic+0x1214>
  8014b8:	e0bffd17 	ldw	r2,-12(fp)
  8014bc:	10803f03 	ldbu	r2,252(r2)
  8014c0:	10803fcc 	andi	r2,r2,255
  8014c4:	1080201c 	xori	r2,r2,128
  8014c8:	10bfe004 	addi	r2,r2,-128
  8014cc:	1000021e 	bne	r2,zero,8014d8 <logic+0x1214>
  8014d0:	00800044 	movi	r2,1
  8014d4:	00000106 	br	8014dc <logic+0x1218>
  8014d8:	0005883a 	mov	r2,zero
  8014dc:	1007883a 	mov	r3,r2
  8014e0:	e0bffd17 	ldw	r2,-12(fp)
  8014e4:	10c04cc5 	stb	r3,307(r2)
  d->_cg107 = d->_PaceMaker_local__Atrig4;
  8014e8:	e0bffd17 	ldw	r2,-12(fp)
  8014ec:	10c00b83 	ldbu	r3,46(r2)
  8014f0:	e0bffd17 	ldw	r2,-12(fp)
  8014f4:	10c03f45 	stb	r3,253(r2)
  d->_g73_e1 = d->_g92_e3 && !d->_cg107;
  8014f8:	e0bffd17 	ldw	r2,-12(fp)
  8014fc:	10804cc3 	ldbu	r2,307(r2)
  801500:	10803fcc 	andi	r2,r2,255
  801504:	1080201c 	xori	r2,r2,128
  801508:	10bfe004 	addi	r2,r2,-128
  80150c:	10000826 	beq	r2,zero,801530 <logic+0x126c>
  801510:	e0bffd17 	ldw	r2,-12(fp)
  801514:	10803f43 	ldbu	r2,253(r2)
  801518:	10803fcc 	andi	r2,r2,255
  80151c:	1080201c 	xori	r2,r2,128
  801520:	10bfe004 	addi	r2,r2,-128
  801524:	1000021e 	bne	r2,zero,801530 <logic+0x126c>
  801528:	00800044 	movi	r2,1
  80152c:	00000106 	br	801534 <logic+0x1270>
  801530:	0005883a 	mov	r2,zero
  801534:	1007883a 	mov	r3,r2
  801538:	e0bffd17 	ldw	r2,-12(fp)
  80153c:	10c04c45 	stb	r3,305(r2)
  if (d->_g73_e1) {
  801540:	e0bffd17 	ldw	r2,-12(fp)
  801544:	10804c43 	ldbu	r2,305(r2)
  801548:	10803fcc 	andi	r2,r2,255
  80154c:	1080201c 	xori	r2,r2,128
  801550:	10bfe004 	addi	r2,r2,-128
  801554:	10000626 	beq	r2,zero,801570 <logic+0x12ac>
    d->VP |= 1;
  801558:	e0bffd17 	ldw	r2,-12(fp)
  80155c:	108004c3 	ldbu	r2,19(r2)
  801560:	10800054 	ori	r2,r2,1
  801564:	1007883a 	mov	r3,r2
  801568:	e0bffd17 	ldw	r2,-12(fp)
  80156c:	10c004c5 	stb	r3,19(r2)
  }
  d->_g97_e4 = d->_pg29_e4;
  801570:	e0bffd17 	ldw	r2,-12(fp)
  801574:	10c05303 	ldbu	r3,332(r2)
  801578:	e0bffd17 	ldw	r2,-12(fp)
  80157c:	10c04d05 	stb	r3,308(r2)
  d->_cg5 = d->VS || d->VP;
  801580:	e0bffd17 	ldw	r2,-12(fp)
  801584:	10800443 	ldbu	r2,17(r2)
  801588:	10803fcc 	andi	r2,r2,255
  80158c:	1080201c 	xori	r2,r2,128
  801590:	10bfe004 	addi	r2,r2,-128
  801594:	1000061e 	bne	r2,zero,8015b0 <logic+0x12ec>
  801598:	e0bffd17 	ldw	r2,-12(fp)
  80159c:	108004c3 	ldbu	r2,19(r2)
  8015a0:	10803fcc 	andi	r2,r2,255
  8015a4:	1080201c 	xori	r2,r2,128
  8015a8:	10bfe004 	addi	r2,r2,-128
  8015ac:	10000226 	beq	r2,zero,8015b8 <logic+0x12f4>
  8015b0:	00800044 	movi	r2,1
  8015b4:	00000106 	br	8015bc <logic+0x12f8>
  8015b8:	0005883a 	mov	r2,zero
  8015bc:	1007883a 	mov	r3,r2
  8015c0:	e0bffd17 	ldw	r2,-12(fp)
  8015c4:	10c03685 	stb	r3,218(r2)
  d->_g84 = d->_g97_e4 && d->_cg5;
  8015c8:	e0bffd17 	ldw	r2,-12(fp)
  8015cc:	10804d03 	ldbu	r2,308(r2)
  8015d0:	10803fcc 	andi	r2,r2,255
  8015d4:	1080201c 	xori	r2,r2,128
  8015d8:	10bfe004 	addi	r2,r2,-128
  8015dc:	10000826 	beq	r2,zero,801600 <logic+0x133c>
  8015e0:	e0bffd17 	ldw	r2,-12(fp)
  8015e4:	10803683 	ldbu	r2,218(r2)
  8015e8:	10803fcc 	andi	r2,r2,255
  8015ec:	1080201c 	xori	r2,r2,128
  8015f0:	10bfe004 	addi	r2,r2,-128
  8015f4:	10000226 	beq	r2,zero,801600 <logic+0x133c>
  8015f8:	00800044 	movi	r2,1
  8015fc:	00000106 	br	801604 <logic+0x1340>
  801600:	0005883a 	mov	r2,zero
  801604:	1007883a 	mov	r3,r2
  801608:	e0bffd17 	ldw	r2,-12(fp)
  80160c:	10c02305 	stb	r3,140(r2)
  if (d->_g84) {
  801610:	e0bffd17 	ldw	r2,-12(fp)
  801614:	10802303 	ldbu	r2,140(r2)
  801618:	10803fcc 	andi	r2,r2,255
  80161c:	1080201c 	xori	r2,r2,128
  801620:	10bfe004 	addi	r2,r2,-128
  801624:	10000526 	beq	r2,zero,80163c <logic+0x1378>
    d->_PaceMaker_local_vrp_clk = 0.0;
  801628:	e0bffd17 	ldw	r2,-12(fp)
  80162c:	10000715 	stw	zero,28(r2)
  801630:	10000815 	stw	zero,32(r2)
    d->_PaceMaker_local__Atrig = 0;
  801634:	e0bffd17 	ldw	r2,-12(fp)
  801638:	10000605 	stb	zero,24(r2)
  }
  d->_g73 = d->_pg97;
  80163c:	e0bffd17 	ldw	r2,-12(fp)
  801640:	10c05343 	ldbu	r3,333(r2)
  801644:	e0bffd17 	ldw	r2,-12(fp)
  801648:	10c02105 	stb	r3,132(r2)
  if (d->_g73) {
  80164c:	e0bffd17 	ldw	r2,-12(fp)
  801650:	10802103 	ldbu	r2,132(r2)
  801654:	10803fcc 	andi	r2,r2,255
  801658:	1080201c 	xori	r2,r2,128
  80165c:	10bfe004 	addi	r2,r2,-128
  801660:	10000626 	beq	r2,zero,80167c <logic+0x13b8>
    d->ignore_VEvent |= 1;
  801664:	e0bffd17 	ldw	r2,-12(fp)
  801668:	10800543 	ldbu	r2,21(r2)
  80166c:	10800054 	ori	r2,r2,1
  801670:	1007883a 	mov	r3,r2
  801674:	e0bffd17 	ldw	r2,-12(fp)
  801678:	10c00545 	stb	r3,21(r2)
  }
  d->_g84_e2 = d->_g84 || d->_g73;
  80167c:	e0bffd17 	ldw	r2,-12(fp)
  801680:	10802303 	ldbu	r2,140(r2)
  801684:	10803fcc 	andi	r2,r2,255
  801688:	1080201c 	xori	r2,r2,128
  80168c:	10bfe004 	addi	r2,r2,-128
  801690:	1000061e 	bne	r2,zero,8016ac <logic+0x13e8>
  801694:	e0bffd17 	ldw	r2,-12(fp)
  801698:	10802103 	ldbu	r2,132(r2)
  80169c:	10803fcc 	andi	r2,r2,255
  8016a0:	1080201c 	xori	r2,r2,128
  8016a4:	10bfe004 	addi	r2,r2,-128
  8016a8:	10000226 	beq	r2,zero,8016b4 <logic+0x13f0>
  8016ac:	00800044 	movi	r2,1
  8016b0:	00000106 	br	8016b8 <logic+0x13f4>
  8016b4:	0005883a 	mov	r2,zero
  8016b8:	1007883a 	mov	r3,r2
  8016bc:	e0bffd17 	ldw	r2,-12(fp)
  8016c0:	10c04c85 	stb	r3,306(r2)
  d->_cg8 = d->_PaceMaker_local__Atrig;
  8016c4:	e0bffd17 	ldw	r2,-12(fp)
  8016c8:	10c00603 	ldbu	r3,24(r2)
  8016cc:	e0bffd17 	ldw	r2,-12(fp)
  8016d0:	10c036c5 	stb	r3,219(r2)
  d->_g97 = d->_g84_e2 && !d->_cg8;
  8016d4:	e0bffd17 	ldw	r2,-12(fp)
  8016d8:	10804c83 	ldbu	r2,306(r2)
  8016dc:	10803fcc 	andi	r2,r2,255
  8016e0:	1080201c 	xori	r2,r2,128
  8016e4:	10bfe004 	addi	r2,r2,-128
  8016e8:	10000826 	beq	r2,zero,80170c <logic+0x1448>
  8016ec:	e0bffd17 	ldw	r2,-12(fp)
  8016f0:	108036c3 	ldbu	r2,219(r2)
  8016f4:	10803fcc 	andi	r2,r2,255
  8016f8:	1080201c 	xori	r2,r2,128
  8016fc:	10bfe004 	addi	r2,r2,-128
  801700:	1000021e 	bne	r2,zero,80170c <logic+0x1448>
  801704:	00800044 	movi	r2,1
  801708:	00000106 	br	801710 <logic+0x144c>
  80170c:	0005883a 	mov	r2,zero
  801710:	1007883a 	mov	r3,r2
  801714:	e0bffd17 	ldw	r2,-12(fp)
  801718:	10c02505 	stb	r3,148(r2)
  d->_g92 = !d->_g97;
  80171c:	e0bffd17 	ldw	r2,-12(fp)
  801720:	10802503 	ldbu	r2,148(r2)
  801724:	10803fcc 	andi	r2,r2,255
  801728:	1080201c 	xori	r2,r2,128
  80172c:	10bfe004 	addi	r2,r2,-128
  801730:	1005003a 	cmpeq	r2,r2,zero
  801734:	1007883a 	mov	r3,r2
  801738:	e0bffd17 	ldw	r2,-12(fp)
  80173c:	10c02445 	stb	r3,145(r2)
  d->_g105 = d->_g84_e2 && d->_cg8;
  801740:	e0bffd17 	ldw	r2,-12(fp)
  801744:	10804c83 	ldbu	r2,306(r2)
  801748:	10803fcc 	andi	r2,r2,255
  80174c:	1080201c 	xori	r2,r2,128
  801750:	10bfe004 	addi	r2,r2,-128
  801754:	10000826 	beq	r2,zero,801778 <logic+0x14b4>
  801758:	e0bffd17 	ldw	r2,-12(fp)
  80175c:	108036c3 	ldbu	r2,219(r2)
  801760:	10803fcc 	andi	r2,r2,255
  801764:	1080201c 	xori	r2,r2,128
  801768:	10bfe004 	addi	r2,r2,-128
  80176c:	10000226 	beq	r2,zero,801778 <logic+0x14b4>
  801770:	00800044 	movi	r2,1
  801774:	00000106 	br	80177c <logic+0x14b8>
  801778:	0005883a 	mov	r2,zero
  80177c:	1007883a 	mov	r3,r2
  801780:	e0bffd17 	ldw	r2,-12(fp)
  801784:	10c02705 	stb	r3,156(r2)
  d->_g11 = d->_pg16;
  801788:	e0bffd17 	ldw	r2,-12(fp)
  80178c:	10c05383 	ldbu	r3,334(r2)
  801790:	e0bffd17 	ldw	r2,-12(fp)
  801794:	10c01705 	stb	r3,92(r2)
  d->_g8 = d->_pg19;
  801798:	e0bffd17 	ldw	r2,-12(fp)
  80179c:	10c053c3 	ldbu	r3,335(r2)
  8017a0:	e0bffd17 	ldw	r2,-12(fp)
  8017a4:	10c01685 	stb	r3,90(r2)
  d->_g20 = d->_g84 || d->_g11 || d->_g8;
  8017a8:	e0bffd17 	ldw	r2,-12(fp)
  8017ac:	10802303 	ldbu	r2,140(r2)
  8017b0:	10803fcc 	andi	r2,r2,255
  8017b4:	1080201c 	xori	r2,r2,128
  8017b8:	10bfe004 	addi	r2,r2,-128
  8017bc:	10000c1e 	bne	r2,zero,8017f0 <logic+0x152c>
  8017c0:	e0bffd17 	ldw	r2,-12(fp)
  8017c4:	10801703 	ldbu	r2,92(r2)
  8017c8:	10803fcc 	andi	r2,r2,255
  8017cc:	1080201c 	xori	r2,r2,128
  8017d0:	10bfe004 	addi	r2,r2,-128
  8017d4:	1000061e 	bne	r2,zero,8017f0 <logic+0x152c>
  8017d8:	e0bffd17 	ldw	r2,-12(fp)
  8017dc:	10801683 	ldbu	r2,90(r2)
  8017e0:	10803fcc 	andi	r2,r2,255
  8017e4:	1080201c 	xori	r2,r2,128
  8017e8:	10bfe004 	addi	r2,r2,-128
  8017ec:	10000226 	beq	r2,zero,8017f8 <logic+0x1534>
  8017f0:	00800044 	movi	r2,1
  8017f4:	00000106 	br	8017fc <logic+0x1538>
  8017f8:	0005883a 	mov	r2,zero
  8017fc:	1007883a 	mov	r3,r2
  801800:	e0bffd17 	ldw	r2,-12(fp)
  801804:	10c01905 	stb	r3,100(r2)
  d->_cg13 = d->_PaceMaker_local_vrp_clk < VRP_VALUE;
  801808:	e13ffd17 	ldw	r4,-12(fp)
  80180c:	20800717 	ldw	r2,28(r4)
  801810:	20c00817 	ldw	r3,32(r4)
  801814:	04000044 	movi	r16,1
  801818:	000d883a 	mov	r6,zero
  80181c:	01d018f4 	movhi	r7,16483
  801820:	39f00004 	addi	r7,r7,-16384
  801824:	1009883a 	mov	r4,r2
  801828:	180b883a 	mov	r5,r3
  80182c:	0806f2c0 	call	806f2c <__ledf2>
  801830:	10000116 	blt	r2,zero,801838 <logic+0x1574>
  801834:	0021883a 	mov	r16,zero
  801838:	8007883a 	mov	r3,r16
  80183c:	e0bffd17 	ldw	r2,-12(fp)
  801840:	10c03705 	stb	r3,220(r2)
  d->_g17 = d->_g20 && !d->_cg13;
  801844:	e0bffd17 	ldw	r2,-12(fp)
  801848:	10801903 	ldbu	r2,100(r2)
  80184c:	10803fcc 	andi	r2,r2,255
  801850:	1080201c 	xori	r2,r2,128
  801854:	10bfe004 	addi	r2,r2,-128
  801858:	10000826 	beq	r2,zero,80187c <logic+0x15b8>
  80185c:	e0bffd17 	ldw	r2,-12(fp)
  801860:	10803703 	ldbu	r2,220(r2)
  801864:	10803fcc 	andi	r2,r2,255
  801868:	1080201c 	xori	r2,r2,128
  80186c:	10bfe004 	addi	r2,r2,-128
  801870:	1000021e 	bne	r2,zero,80187c <logic+0x15b8>
  801874:	00800044 	movi	r2,1
  801878:	00000106 	br	801880 <logic+0x15bc>
  80187c:	0005883a 	mov	r2,zero
  801880:	1007883a 	mov	r3,r2
  801884:	e0bffd17 	ldw	r2,-12(fp)
  801888:	10c01845 	stb	r3,97(r2)
  d->_cg18 = d->_PaceMaker_local__Atrig;
  80188c:	e0bffd17 	ldw	r2,-12(fp)
  801890:	10c00603 	ldbu	r3,24(r2)
  801894:	e0bffd17 	ldw	r2,-12(fp)
  801898:	10c03785 	stb	r3,222(r2)
  d->_g19 = d->_g17 && !d->_cg18;
  80189c:	e0bffd17 	ldw	r2,-12(fp)
  8018a0:	10801843 	ldbu	r2,97(r2)
  8018a4:	10803fcc 	andi	r2,r2,255
  8018a8:	1080201c 	xori	r2,r2,128
  8018ac:	10bfe004 	addi	r2,r2,-128
  8018b0:	10000826 	beq	r2,zero,8018d4 <logic+0x1610>
  8018b4:	e0bffd17 	ldw	r2,-12(fp)
  8018b8:	10803783 	ldbu	r2,222(r2)
  8018bc:	10803fcc 	andi	r2,r2,255
  8018c0:	1080201c 	xori	r2,r2,128
  8018c4:	10bfe004 	addi	r2,r2,-128
  8018c8:	1000021e 	bne	r2,zero,8018d4 <logic+0x1610>
  8018cc:	00800044 	movi	r2,1
  8018d0:	00000106 	br	8018d8 <logic+0x1614>
  8018d4:	0005883a 	mov	r2,zero
  8018d8:	1007883a 	mov	r3,r2
  8018dc:	e0bffd17 	ldw	r2,-12(fp)
  8018e0:	10c018c5 	stb	r3,99(r2)
  d->_g13 = d->_g20 && d->_cg13;
  8018e4:	e0bffd17 	ldw	r2,-12(fp)
  8018e8:	10801903 	ldbu	r2,100(r2)
  8018ec:	10803fcc 	andi	r2,r2,255
  8018f0:	1080201c 	xori	r2,r2,128
  8018f4:	10bfe004 	addi	r2,r2,-128
  8018f8:	10000826 	beq	r2,zero,80191c <logic+0x1658>
  8018fc:	e0bffd17 	ldw	r2,-12(fp)
  801900:	10803703 	ldbu	r2,220(r2)
  801904:	10803fcc 	andi	r2,r2,255
  801908:	1080201c 	xori	r2,r2,128
  80190c:	10bfe004 	addi	r2,r2,-128
  801910:	10000226 	beq	r2,zero,80191c <logic+0x1658>
  801914:	00800044 	movi	r2,1
  801918:	00000106 	br	801920 <logic+0x165c>
  80191c:	0005883a 	mov	r2,zero
  801920:	1007883a 	mov	r3,r2
  801924:	e0bffd17 	ldw	r2,-12(fp)
  801928:	10c01745 	stb	r3,93(r2)
  if (d->_g13) {
  80192c:	e0bffd17 	ldw	r2,-12(fp)
  801930:	10801743 	ldbu	r2,93(r2)
  801934:	10803fcc 	andi	r2,r2,255
  801938:	1080201c 	xori	r2,r2,128
  80193c:	10bfe004 	addi	r2,r2,-128
  801940:	10002a26 	beq	r2,zero,8019ec <logic+0x1728>
    d->sleepT = (d->sleepT < (VRP_VALUE - d->_PaceMaker_local_vrp_clk)) ? d->sleepT : (VRP_VALUE - d->_PaceMaker_local_vrp_clk);
  801944:	e0bffd17 	ldw	r2,-12(fp)
  801948:	14000217 	ldw	r16,8(r2)
  80194c:	14400317 	ldw	r17,12(r2)
  801950:	e13ffd17 	ldw	r4,-12(fp)
  801954:	20800717 	ldw	r2,28(r4)
  801958:	20c00817 	ldw	r3,32(r4)
  80195c:	100d883a 	mov	r6,r2
  801960:	180f883a 	mov	r7,r3
  801964:	0009883a 	mov	r4,zero
  801968:	015018f4 	movhi	r5,16483
  80196c:	29700004 	addi	r5,r5,-16384
  801970:	08070200 	call	807020 <__subdf3>
  801974:	1009883a 	mov	r4,r2
  801978:	180b883a 	mov	r5,r3
  80197c:	2005883a 	mov	r2,r4
  801980:	2807883a 	mov	r3,r5
  801984:	100d883a 	mov	r6,r2
  801988:	180f883a 	mov	r7,r3
  80198c:	8009883a 	mov	r4,r16
  801990:	880b883a 	mov	r5,r17
  801994:	0806f2c0 	call	806f2c <__ledf2>
  801998:	1000040e 	bge	r2,zero,8019ac <logic+0x16e8>
  80199c:	e13ffd17 	ldw	r4,-12(fp)
  8019a0:	20800217 	ldw	r2,8(r4)
  8019a4:	20c00317 	ldw	r3,12(r4)
  8019a8:	00000d06 	br	8019e0 <logic+0x171c>
  8019ac:	e13ffd17 	ldw	r4,-12(fp)
  8019b0:	20800717 	ldw	r2,28(r4)
  8019b4:	20c00817 	ldw	r3,32(r4)
  8019b8:	100d883a 	mov	r6,r2
  8019bc:	180f883a 	mov	r7,r3
  8019c0:	0009883a 	mov	r4,zero
  8019c4:	015018f4 	movhi	r5,16483
  8019c8:	29700004 	addi	r5,r5,-16384
  8019cc:	08070200 	call	807020 <__subdf3>
  8019d0:	1009883a 	mov	r4,r2
  8019d4:	180b883a 	mov	r5,r3
  8019d8:	2005883a 	mov	r2,r4
  8019dc:	2807883a 	mov	r3,r5
  8019e0:	e13ffd17 	ldw	r4,-12(fp)
  8019e4:	20800215 	stw	r2,8(r4)
  8019e8:	20c00315 	stw	r3,12(r4)
  }
  d->_cg14 = d->_PaceMaker_local__Atrig;
  8019ec:	e0bffd17 	ldw	r2,-12(fp)
  8019f0:	10c00603 	ldbu	r3,24(r2)
  8019f4:	e0bffd17 	ldw	r2,-12(fp)
  8019f8:	10c03745 	stb	r3,221(r2)
  d->_g16 = d->_g13 && !d->_cg14;
  8019fc:	e0bffd17 	ldw	r2,-12(fp)
  801a00:	10801743 	ldbu	r2,93(r2)
  801a04:	10803fcc 	andi	r2,r2,255
  801a08:	1080201c 	xori	r2,r2,128
  801a0c:	10bfe004 	addi	r2,r2,-128
  801a10:	10000826 	beq	r2,zero,801a34 <logic+0x1770>
  801a14:	e0bffd17 	ldw	r2,-12(fp)
  801a18:	10803743 	ldbu	r2,221(r2)
  801a1c:	10803fcc 	andi	r2,r2,255
  801a20:	1080201c 	xori	r2,r2,128
  801a24:	10bfe004 	addi	r2,r2,-128
  801a28:	1000021e 	bne	r2,zero,801a34 <logic+0x1770>
  801a2c:	00800044 	movi	r2,1
  801a30:	00000106 	br	801a38 <logic+0x1774>
  801a34:	0005883a 	mov	r2,zero
  801a38:	1007883a 	mov	r3,r2
  801a3c:	e0bffd17 	ldw	r2,-12(fp)
  801a40:	10c01805 	stb	r3,96(r2)
  d->_g15_e2 = !(d->_g19 || d->_g16);
  801a44:	e0bffd17 	ldw	r2,-12(fp)
  801a48:	108018c3 	ldbu	r2,99(r2)
  801a4c:	10803fcc 	andi	r2,r2,255
  801a50:	1080201c 	xori	r2,r2,128
  801a54:	10bfe004 	addi	r2,r2,-128
  801a58:	1000081e 	bne	r2,zero,801a7c <logic+0x17b8>
  801a5c:	e0bffd17 	ldw	r2,-12(fp)
  801a60:	10801803 	ldbu	r2,96(r2)
  801a64:	10803fcc 	andi	r2,r2,255
  801a68:	1080201c 	xori	r2,r2,128
  801a6c:	10bfe004 	addi	r2,r2,-128
  801a70:	1000021e 	bne	r2,zero,801a7c <logic+0x17b8>
  801a74:	00800044 	movi	r2,1
  801a78:	00000106 	br	801a80 <logic+0x17bc>
  801a7c:	0005883a 	mov	r2,zero
  801a80:	1007883a 	mov	r3,r2
  801a84:	e0bffd17 	ldw	r2,-12(fp)
  801a88:	10c04a85 	stb	r3,298(r2)
  d->_g18 = (d->_g13 && d->_cg14) || (d->_g17 && d->_cg18);
  801a8c:	e0bffd17 	ldw	r2,-12(fp)
  801a90:	10801743 	ldbu	r2,93(r2)
  801a94:	10803fcc 	andi	r2,r2,255
  801a98:	1080201c 	xori	r2,r2,128
  801a9c:	10bfe004 	addi	r2,r2,-128
  801aa0:	10000626 	beq	r2,zero,801abc <logic+0x17f8>
  801aa4:	e0bffd17 	ldw	r2,-12(fp)
  801aa8:	10803743 	ldbu	r2,221(r2)
  801aac:	10803fcc 	andi	r2,r2,255
  801ab0:	1080201c 	xori	r2,r2,128
  801ab4:	10bfe004 	addi	r2,r2,-128
  801ab8:	10000c1e 	bne	r2,zero,801aec <logic+0x1828>
  801abc:	e0bffd17 	ldw	r2,-12(fp)
  801ac0:	10801843 	ldbu	r2,97(r2)
  801ac4:	10803fcc 	andi	r2,r2,255
  801ac8:	1080201c 	xori	r2,r2,128
  801acc:	10bfe004 	addi	r2,r2,-128
  801ad0:	10000826 	beq	r2,zero,801af4 <logic+0x1830>
  801ad4:	e0bffd17 	ldw	r2,-12(fp)
  801ad8:	10803783 	ldbu	r2,222(r2)
  801adc:	10803fcc 	andi	r2,r2,255
  801ae0:	1080201c 	xori	r2,r2,128
  801ae4:	10bfe004 	addi	r2,r2,-128
  801ae8:	10000226 	beq	r2,zero,801af4 <logic+0x1830>
  801aec:	00800044 	movi	r2,1
  801af0:	00000106 	br	801af8 <logic+0x1834>
  801af4:	0005883a 	mov	r2,zero
  801af8:	1007883a 	mov	r3,r2
  801afc:	e0bffd17 	ldw	r2,-12(fp)
  801b00:	10c01885 	stb	r3,98(r2)
  d->_g14 = d->_g84 || d->_g25;
  801b04:	e0bffd17 	ldw	r2,-12(fp)
  801b08:	10802303 	ldbu	r2,140(r2)
  801b0c:	10803fcc 	andi	r2,r2,255
  801b10:	1080201c 	xori	r2,r2,128
  801b14:	10bfe004 	addi	r2,r2,-128
  801b18:	1000061e 	bne	r2,zero,801b34 <logic+0x1870>
  801b1c:	e0bffd17 	ldw	r2,-12(fp)
  801b20:	108019c3 	ldbu	r2,103(r2)
  801b24:	10803fcc 	andi	r2,r2,255
  801b28:	1080201c 	xori	r2,r2,128
  801b2c:	10bfe004 	addi	r2,r2,-128
  801b30:	10000226 	beq	r2,zero,801b3c <logic+0x1878>
  801b34:	00800044 	movi	r2,1
  801b38:	00000106 	br	801b40 <logic+0x187c>
  801b3c:	0005883a 	mov	r2,zero
  801b40:	1007883a 	mov	r3,r2
  801b44:	e0bffd17 	ldw	r2,-12(fp)
  801b48:	10c01785 	stb	r3,94(r2)
  d->_cg22 = d->_PaceMaker_local__Atrig;
  801b4c:	e0bffd17 	ldw	r2,-12(fp)
  801b50:	10c00603 	ldbu	r3,24(r2)
  801b54:	e0bffd17 	ldw	r2,-12(fp)
  801b58:	10c037c5 	stb	r3,223(r2)
  d->_g25 = d->_g14 && !d->_cg22;
  801b5c:	e0bffd17 	ldw	r2,-12(fp)
  801b60:	10801783 	ldbu	r2,94(r2)
  801b64:	10803fcc 	andi	r2,r2,255
  801b68:	1080201c 	xori	r2,r2,128
  801b6c:	10bfe004 	addi	r2,r2,-128
  801b70:	10000826 	beq	r2,zero,801b94 <logic+0x18d0>
  801b74:	e0bffd17 	ldw	r2,-12(fp)
  801b78:	108037c3 	ldbu	r2,223(r2)
  801b7c:	10803fcc 	andi	r2,r2,255
  801b80:	1080201c 	xori	r2,r2,128
  801b84:	10bfe004 	addi	r2,r2,-128
  801b88:	1000021e 	bne	r2,zero,801b94 <logic+0x18d0>
  801b8c:	00800044 	movi	r2,1
  801b90:	00000106 	br	801b98 <logic+0x18d4>
  801b94:	0005883a 	mov	r2,zero
  801b98:	1007883a 	mov	r3,r2
  801b9c:	e0bffd17 	ldw	r2,-12(fp)
  801ba0:	10c019c5 	stb	r3,103(r2)
  d->_g23_e3 = !d->_g25;
  801ba4:	e0bffd17 	ldw	r2,-12(fp)
  801ba8:	108019c3 	ldbu	r2,103(r2)
  801bac:	10803fcc 	andi	r2,r2,255
  801bb0:	1080201c 	xori	r2,r2,128
  801bb4:	10bfe004 	addi	r2,r2,-128
  801bb8:	1005003a 	cmpeq	r2,r2,zero
  801bbc:	1007883a 	mov	r3,r2
  801bc0:	e0bffd17 	ldw	r2,-12(fp)
  801bc4:	10c04ac5 	stb	r3,299(r2)
  d->_g22 = d->_g14 && d->_cg22;
  801bc8:	e0bffd17 	ldw	r2,-12(fp)
  801bcc:	10801783 	ldbu	r2,94(r2)
  801bd0:	10803fcc 	andi	r2,r2,255
  801bd4:	1080201c 	xori	r2,r2,128
  801bd8:	10bfe004 	addi	r2,r2,-128
  801bdc:	10000826 	beq	r2,zero,801c00 <logic+0x193c>
  801be0:	e0bffd17 	ldw	r2,-12(fp)
  801be4:	108037c3 	ldbu	r2,223(r2)
  801be8:	10803fcc 	andi	r2,r2,255
  801bec:	1080201c 	xori	r2,r2,128
  801bf0:	10bfe004 	addi	r2,r2,-128
  801bf4:	10000226 	beq	r2,zero,801c00 <logic+0x193c>
  801bf8:	00800044 	movi	r2,1
  801bfc:	00000106 	br	801c04 <logic+0x1940>
  801c00:	0005883a 	mov	r2,zero
  801c04:	1007883a 	mov	r3,r2
  801c08:	e0bffd17 	ldw	r2,-12(fp)
  801c0c:	10c01945 	stb	r3,101(r2)
  d->_g28 = d->_g84 || (d->_g28 && !d->_cg28);
  801c10:	e0bffd17 	ldw	r2,-12(fp)
  801c14:	10802303 	ldbu	r2,140(r2)
  801c18:	10803fcc 	andi	r2,r2,255
  801c1c:	1080201c 	xori	r2,r2,128
  801c20:	10bfe004 	addi	r2,r2,-128
  801c24:	10000c1e 	bne	r2,zero,801c58 <logic+0x1994>
  801c28:	e0bffd17 	ldw	r2,-12(fp)
  801c2c:	10801a03 	ldbu	r2,104(r2)
  801c30:	10803fcc 	andi	r2,r2,255
  801c34:	1080201c 	xori	r2,r2,128
  801c38:	10bfe004 	addi	r2,r2,-128
  801c3c:	10000826 	beq	r2,zero,801c60 <logic+0x199c>
  801c40:	e0bffd17 	ldw	r2,-12(fp)
  801c44:	10803803 	ldbu	r2,224(r2)
  801c48:	10803fcc 	andi	r2,r2,255
  801c4c:	1080201c 	xori	r2,r2,128
  801c50:	10bfe004 	addi	r2,r2,-128
  801c54:	1000021e 	bne	r2,zero,801c60 <logic+0x199c>
  801c58:	00800044 	movi	r2,1
  801c5c:	00000106 	br	801c64 <logic+0x19a0>
  801c60:	0005883a 	mov	r2,zero
  801c64:	1007883a 	mov	r3,r2
  801c68:	e0bffd17 	ldw	r2,-12(fp)
  801c6c:	10c01a05 	stb	r3,104(r2)
  d->_g6 = !d->_g28;
  801c70:	e0bffd17 	ldw	r2,-12(fp)
  801c74:	10801a03 	ldbu	r2,104(r2)
  801c78:	10803fcc 	andi	r2,r2,255
  801c7c:	1080201c 	xori	r2,r2,128
  801c80:	10bfe004 	addi	r2,r2,-128
  801c84:	1005003a 	cmpeq	r2,r2,zero
  801c88:	1007883a 	mov	r3,r2
  801c8c:	e0bffd17 	ldw	r2,-12(fp)
  801c90:	10c01645 	stb	r3,89(r2)
  d->_g15 = (d->_g92 || d->_g105) && (d->_g15_e2 || d->_g18) && (d->_g23_e3 || d->_g22) && (d->_g6 || d->_g29) && (d->_g105 || d->_g18 || d->_g22 || d->_g29);
  801c94:	e0bffd17 	ldw	r2,-12(fp)
  801c98:	10802443 	ldbu	r2,145(r2)
  801c9c:	10803fcc 	andi	r2,r2,255
  801ca0:	1080201c 	xori	r2,r2,128
  801ca4:	10bfe004 	addi	r2,r2,-128
  801ca8:	1000061e 	bne	r2,zero,801cc4 <logic+0x1a00>
  801cac:	e0bffd17 	ldw	r2,-12(fp)
  801cb0:	10802703 	ldbu	r2,156(r2)
  801cb4:	10803fcc 	andi	r2,r2,255
  801cb8:	1080201c 	xori	r2,r2,128
  801cbc:	10bfe004 	addi	r2,r2,-128
  801cc0:	10003e26 	beq	r2,zero,801dbc <logic+0x1af8>
  801cc4:	e0bffd17 	ldw	r2,-12(fp)
  801cc8:	10804a83 	ldbu	r2,298(r2)
  801ccc:	10803fcc 	andi	r2,r2,255
  801cd0:	1080201c 	xori	r2,r2,128
  801cd4:	10bfe004 	addi	r2,r2,-128
  801cd8:	1000061e 	bne	r2,zero,801cf4 <logic+0x1a30>
  801cdc:	e0bffd17 	ldw	r2,-12(fp)
  801ce0:	10801883 	ldbu	r2,98(r2)
  801ce4:	10803fcc 	andi	r2,r2,255
  801ce8:	1080201c 	xori	r2,r2,128
  801cec:	10bfe004 	addi	r2,r2,-128
  801cf0:	10003226 	beq	r2,zero,801dbc <logic+0x1af8>
  801cf4:	e0bffd17 	ldw	r2,-12(fp)
  801cf8:	10804ac3 	ldbu	r2,299(r2)
  801cfc:	10803fcc 	andi	r2,r2,255
  801d00:	1080201c 	xori	r2,r2,128
  801d04:	10bfe004 	addi	r2,r2,-128
  801d08:	1000061e 	bne	r2,zero,801d24 <logic+0x1a60>
  801d0c:	e0bffd17 	ldw	r2,-12(fp)
  801d10:	10801943 	ldbu	r2,101(r2)
  801d14:	10803fcc 	andi	r2,r2,255
  801d18:	1080201c 	xori	r2,r2,128
  801d1c:	10bfe004 	addi	r2,r2,-128
  801d20:	10002626 	beq	r2,zero,801dbc <logic+0x1af8>
  801d24:	e0bffd17 	ldw	r2,-12(fp)
  801d28:	10801643 	ldbu	r2,89(r2)
  801d2c:	10803fcc 	andi	r2,r2,255
  801d30:	1080201c 	xori	r2,r2,128
  801d34:	10bfe004 	addi	r2,r2,-128
  801d38:	1000061e 	bne	r2,zero,801d54 <logic+0x1a90>
  801d3c:	e0bffd17 	ldw	r2,-12(fp)
  801d40:	10801a43 	ldbu	r2,105(r2)
  801d44:	10803fcc 	andi	r2,r2,255
  801d48:	1080201c 	xori	r2,r2,128
  801d4c:	10bfe004 	addi	r2,r2,-128
  801d50:	10001a26 	beq	r2,zero,801dbc <logic+0x1af8>
  801d54:	e0bffd17 	ldw	r2,-12(fp)
  801d58:	10802703 	ldbu	r2,156(r2)
  801d5c:	10803fcc 	andi	r2,r2,255
  801d60:	1080201c 	xori	r2,r2,128
  801d64:	10bfe004 	addi	r2,r2,-128
  801d68:	1000121e 	bne	r2,zero,801db4 <logic+0x1af0>
  801d6c:	e0bffd17 	ldw	r2,-12(fp)
  801d70:	10801883 	ldbu	r2,98(r2)
  801d74:	10803fcc 	andi	r2,r2,255
  801d78:	1080201c 	xori	r2,r2,128
  801d7c:	10bfe004 	addi	r2,r2,-128
  801d80:	10000c1e 	bne	r2,zero,801db4 <logic+0x1af0>
  801d84:	e0bffd17 	ldw	r2,-12(fp)
  801d88:	10801943 	ldbu	r2,101(r2)
  801d8c:	10803fcc 	andi	r2,r2,255
  801d90:	1080201c 	xori	r2,r2,128
  801d94:	10bfe004 	addi	r2,r2,-128
  801d98:	1000061e 	bne	r2,zero,801db4 <logic+0x1af0>
  801d9c:	e0bffd17 	ldw	r2,-12(fp)
  801da0:	10801a43 	ldbu	r2,105(r2)
  801da4:	10803fcc 	andi	r2,r2,255
  801da8:	1080201c 	xori	r2,r2,128
  801dac:	10bfe004 	addi	r2,r2,-128
  801db0:	10000226 	beq	r2,zero,801dbc <logic+0x1af8>
  801db4:	00800044 	movi	r2,1
  801db8:	00000106 	br	801dc0 <logic+0x1afc>
  801dbc:	0005883a 	mov	r2,zero
  801dc0:	1007883a 	mov	r3,r2
  801dc4:	e0bffd17 	ldw	r2,-12(fp)
  801dc8:	10c017c5 	stb	r3,95(r2)
  d->_g29_e4 = d->_GO || d->_g15 || (d->_g97_e4 && !d->_cg5);
  801dcc:	e0bffd17 	ldw	r2,-12(fp)
  801dd0:	10803643 	ldbu	r2,217(r2)
  801dd4:	10803fcc 	andi	r2,r2,255
  801dd8:	1080201c 	xori	r2,r2,128
  801ddc:	10bfe004 	addi	r2,r2,-128
  801de0:	1000121e 	bne	r2,zero,801e2c <logic+0x1b68>
  801de4:	e0bffd17 	ldw	r2,-12(fp)
  801de8:	108017c3 	ldbu	r2,95(r2)
  801dec:	10803fcc 	andi	r2,r2,255
  801df0:	1080201c 	xori	r2,r2,128
  801df4:	10bfe004 	addi	r2,r2,-128
  801df8:	10000c1e 	bne	r2,zero,801e2c <logic+0x1b68>
  801dfc:	e0bffd17 	ldw	r2,-12(fp)
  801e00:	10804d03 	ldbu	r2,308(r2)
  801e04:	10803fcc 	andi	r2,r2,255
  801e08:	1080201c 	xori	r2,r2,128
  801e0c:	10bfe004 	addi	r2,r2,-128
  801e10:	10000826 	beq	r2,zero,801e34 <logic+0x1b70>
  801e14:	e0bffd17 	ldw	r2,-12(fp)
  801e18:	10803683 	ldbu	r2,218(r2)
  801e1c:	10803fcc 	andi	r2,r2,255
  801e20:	1080201c 	xori	r2,r2,128
  801e24:	10bfe004 	addi	r2,r2,-128
  801e28:	1000021e 	bne	r2,zero,801e34 <logic+0x1b70>
  801e2c:	00800044 	movi	r2,1
  801e30:	00000106 	br	801e38 <logic+0x1b74>
  801e34:	0005883a 	mov	r2,zero
  801e38:	1007883a 	mov	r3,r2
  801e3c:	e0bffd17 	ldw	r2,-12(fp)
  801e40:	10c04b05 	stb	r3,300(r2)
  d->_g9 = d->_pg54;
  801e44:	e0bffd17 	ldw	r2,-12(fp)
  801e48:	10c05403 	ldbu	r3,336(r2)
  801e4c:	e0bffd17 	ldw	r2,-12(fp)
  801e50:	10c016c5 	stb	r3,91(r2)
  if (d->_g9) {
  801e54:	e0bffd17 	ldw	r2,-12(fp)
  801e58:	108016c3 	ldbu	r2,91(r2)
  801e5c:	10803fcc 	andi	r2,r2,255
  801e60:	1080201c 	xori	r2,r2,128
  801e64:	10bfe004 	addi	r2,r2,-128
  801e68:	10001226 	beq	r2,zero,801eb4 <logic+0x1bf0>
    d->_PaceMaker_local_pvarp_clk += d->deltaT;
  801e6c:	e13ffd17 	ldw	r4,-12(fp)
  801e70:	20800917 	ldw	r2,36(r4)
  801e74:	20c00a17 	ldw	r3,40(r4)
  801e78:	e1bffd17 	ldw	r6,-12(fp)
  801e7c:	31000017 	ldw	r4,0(r6)
  801e80:	31400117 	ldw	r5,4(r6)
  801e84:	200d883a 	mov	r6,r4
  801e88:	280f883a 	mov	r7,r5
  801e8c:	1009883a 	mov	r4,r2
  801e90:	180b883a 	mov	r5,r3
  801e94:	08065a40 	call	8065a4 <__adddf3>
  801e98:	1009883a 	mov	r4,r2
  801e9c:	180b883a 	mov	r5,r3
  801ea0:	2005883a 	mov	r2,r4
  801ea4:	2807883a 	mov	r3,r5
  801ea8:	e13ffd17 	ldw	r4,-12(fp)
  801eac:	20800915 	stw	r2,36(r4)
  801eb0:	20c00a15 	stw	r3,40(r4)
  }
  d->_g29 = d->_pg35;
  801eb4:	e0bffd17 	ldw	r2,-12(fp)
  801eb8:	10c05443 	ldbu	r3,337(r2)
  801ebc:	e0bffd17 	ldw	r2,-12(fp)
  801ec0:	10c01a45 	stb	r3,105(r2)
  d->_cg57 = d->_PaceMaker_local_pvarp_clk >= PVARP_VALUE;
  801ec4:	e13ffd17 	ldw	r4,-12(fp)
  801ec8:	20800917 	ldw	r2,36(r4)
  801ecc:	20c00a17 	ldw	r3,40(r4)
  801ed0:	04000044 	movi	r16,1
  801ed4:	000d883a 	mov	r6,zero
  801ed8:	01d01274 	movhi	r7,16457
  801edc:	1009883a 	mov	r4,r2
  801ee0:	180b883a 	mov	r5,r3
  801ee4:	0806e500 	call	806e50 <__gedf2>
  801ee8:	1000010e 	bge	r2,zero,801ef0 <logic+0x1c2c>
  801eec:	0021883a 	mov	r16,zero
  801ef0:	8007883a 	mov	r3,r16
  801ef4:	e0bffd17 	ldw	r2,-12(fp)
  801ef8:	10c039c5 	stb	r3,231(r2)
  d->_g23 = d->_g29 && d->_cg57;
  801efc:	e0bffd17 	ldw	r2,-12(fp)
  801f00:	10801a43 	ldbu	r2,105(r2)
  801f04:	10803fcc 	andi	r2,r2,255
  801f08:	1080201c 	xori	r2,r2,128
  801f0c:	10bfe004 	addi	r2,r2,-128
  801f10:	10000826 	beq	r2,zero,801f34 <logic+0x1c70>
  801f14:	e0bffd17 	ldw	r2,-12(fp)
  801f18:	108039c3 	ldbu	r2,231(r2)
  801f1c:	10803fcc 	andi	r2,r2,255
  801f20:	1080201c 	xori	r2,r2,128
  801f24:	10bfe004 	addi	r2,r2,-128
  801f28:	10000226 	beq	r2,zero,801f34 <logic+0x1c70>
  801f2c:	00800044 	movi	r2,1
  801f30:	00000106 	br	801f38 <logic+0x1c74>
  801f34:	0005883a 	mov	r2,zero
  801f38:	1007883a 	mov	r3,r2
  801f3c:	e0bffd17 	ldw	r2,-12(fp)
  801f40:	10c01985 	stb	r3,102(r2)
  if (d->_g23) {
  801f44:	e0bffd17 	ldw	r2,-12(fp)
  801f48:	10801983 	ldbu	r2,102(r2)
  801f4c:	10803fcc 	andi	r2,r2,255
  801f50:	1080201c 	xori	r2,r2,128
  801f54:	10bfe004 	addi	r2,r2,-128
  801f58:	10000326 	beq	r2,zero,801f68 <logic+0x1ca4>
    d->_PaceMaker_local__Atrig1 = 1;
  801f5c:	e0bffd17 	ldw	r2,-12(fp)
  801f60:	00c00044 	movi	r3,1
  801f64:	10c00645 	stb	r3,25(r2)
  }
  d->_g23_e3 = d->_pg38_e1;
  801f68:	e0bffd17 	ldw	r2,-12(fp)
  801f6c:	10c05483 	ldbu	r3,338(r2)
  801f70:	e0bffd17 	ldw	r2,-12(fp)
  801f74:	10c04ac5 	stb	r3,299(r2)
  d->_cg34 = d->VS || d->VP;
  801f78:	e0bffd17 	ldw	r2,-12(fp)
  801f7c:	10800443 	ldbu	r2,17(r2)
  801f80:	10803fcc 	andi	r2,r2,255
  801f84:	1080201c 	xori	r2,r2,128
  801f88:	10bfe004 	addi	r2,r2,-128
  801f8c:	1000061e 	bne	r2,zero,801fa8 <logic+0x1ce4>
  801f90:	e0bffd17 	ldw	r2,-12(fp)
  801f94:	108004c3 	ldbu	r2,19(r2)
  801f98:	10803fcc 	andi	r2,r2,255
  801f9c:	1080201c 	xori	r2,r2,128
  801fa0:	10bfe004 	addi	r2,r2,-128
  801fa4:	10000226 	beq	r2,zero,801fb0 <logic+0x1cec>
  801fa8:	00800044 	movi	r2,1
  801fac:	00000106 	br	801fb4 <logic+0x1cf0>
  801fb0:	0005883a 	mov	r2,zero
  801fb4:	1007883a 	mov	r3,r2
  801fb8:	e0bffd17 	ldw	r2,-12(fp)
  801fbc:	10c03845 	stb	r3,225(r2)
  d->_g9_e1 = d->_g23_e3 && d->_cg34;
  801fc0:	e0bffd17 	ldw	r2,-12(fp)
  801fc4:	10804ac3 	ldbu	r2,299(r2)
  801fc8:	10803fcc 	andi	r2,r2,255
  801fcc:	1080201c 	xori	r2,r2,128
  801fd0:	10bfe004 	addi	r2,r2,-128
  801fd4:	10000826 	beq	r2,zero,801ff8 <logic+0x1d34>
  801fd8:	e0bffd17 	ldw	r2,-12(fp)
  801fdc:	10803843 	ldbu	r2,225(r2)
  801fe0:	10803fcc 	andi	r2,r2,255
  801fe4:	1080201c 	xori	r2,r2,128
  801fe8:	10bfe004 	addi	r2,r2,-128
  801fec:	10000226 	beq	r2,zero,801ff8 <logic+0x1d34>
  801ff0:	00800044 	movi	r2,1
  801ff4:	00000106 	br	801ffc <logic+0x1d38>
  801ff8:	0005883a 	mov	r2,zero
  801ffc:	1007883a 	mov	r3,r2
  802000:	e0bffd17 	ldw	r2,-12(fp)
  802004:	10c04a45 	stb	r3,297(r2)
  if (d->_g9_e1) {
  802008:	e0bffd17 	ldw	r2,-12(fp)
  80200c:	10804a43 	ldbu	r2,297(r2)
  802010:	10803fcc 	andi	r2,r2,255
  802014:	1080201c 	xori	r2,r2,128
  802018:	10bfe004 	addi	r2,r2,-128
  80201c:	10000526 	beq	r2,zero,802034 <logic+0x1d70>
    d->_PaceMaker_local_pvarp_clk = 0.0;
  802020:	e0bffd17 	ldw	r2,-12(fp)
  802024:	10000915 	stw	zero,36(r2)
  802028:	10000a15 	stw	zero,40(r2)
    d->_PaceMaker_local__Atrig1 = 0;
  80202c:	e0bffd17 	ldw	r2,-12(fp)
  802030:	10000645 	stb	zero,25(r2)
  }
  d->_g15_e2 = d->_pg30;
  802034:	e0bffd17 	ldw	r2,-12(fp)
  802038:	10c054c3 	ldbu	r3,339(r2)
  80203c:	e0bffd17 	ldw	r2,-12(fp)
  802040:	10c04a85 	stb	r3,298(r2)
  if (d->_g15_e2) {
  802044:	e0bffd17 	ldw	r2,-12(fp)
  802048:	10804a83 	ldbu	r2,298(r2)
  80204c:	10803fcc 	andi	r2,r2,255
  802050:	1080201c 	xori	r2,r2,128
  802054:	10bfe004 	addi	r2,r2,-128
  802058:	10000626 	beq	r2,zero,802074 <logic+0x1db0>
    d->ignore_AEvent |= 1;
  80205c:	e0bffd17 	ldw	r2,-12(fp)
  802060:	10800503 	ldbu	r2,20(r2)
  802064:	10800054 	ori	r2,r2,1
  802068:	1007883a 	mov	r3,r2
  80206c:	e0bffd17 	ldw	r2,-12(fp)
  802070:	10c00505 	stb	r3,20(r2)
  }
  d->_g5 = d->_g9_e1 || d->_g15_e2;
  802074:	e0bffd17 	ldw	r2,-12(fp)
  802078:	10804a43 	ldbu	r2,297(r2)
  80207c:	10803fcc 	andi	r2,r2,255
  802080:	1080201c 	xori	r2,r2,128
  802084:	10bfe004 	addi	r2,r2,-128
  802088:	1000061e 	bne	r2,zero,8020a4 <logic+0x1de0>
  80208c:	e0bffd17 	ldw	r2,-12(fp)
  802090:	10804a83 	ldbu	r2,298(r2)
  802094:	10803fcc 	andi	r2,r2,255
  802098:	1080201c 	xori	r2,r2,128
  80209c:	10bfe004 	addi	r2,r2,-128
  8020a0:	10000226 	beq	r2,zero,8020ac <logic+0x1de8>
  8020a4:	00800044 	movi	r2,1
  8020a8:	00000106 	br	8020b0 <logic+0x1dec>
  8020ac:	0005883a 	mov	r2,zero
  8020b0:	1007883a 	mov	r3,r2
  8020b4:	e0bffd17 	ldw	r2,-12(fp)
  8020b8:	10c01605 	stb	r3,88(r2)
  d->_cg37 = d->_PaceMaker_local__Atrig1;
  8020bc:	e0bffd17 	ldw	r2,-12(fp)
  8020c0:	10c00643 	ldbu	r3,25(r2)
  8020c4:	e0bffd17 	ldw	r2,-12(fp)
  8020c8:	10c03885 	stb	r3,226(r2)
  d->_g30 = d->_g5 && !d->_cg37;
  8020cc:	e0bffd17 	ldw	r2,-12(fp)
  8020d0:	10801603 	ldbu	r2,88(r2)
  8020d4:	10803fcc 	andi	r2,r2,255
  8020d8:	1080201c 	xori	r2,r2,128
  8020dc:	10bfe004 	addi	r2,r2,-128
  8020e0:	10000826 	beq	r2,zero,802104 <logic+0x1e40>
  8020e4:	e0bffd17 	ldw	r2,-12(fp)
  8020e8:	10803883 	ldbu	r2,226(r2)
  8020ec:	10803fcc 	andi	r2,r2,255
  8020f0:	1080201c 	xori	r2,r2,128
  8020f4:	10bfe004 	addi	r2,r2,-128
  8020f8:	1000021e 	bne	r2,zero,802104 <logic+0x1e40>
  8020fc:	00800044 	movi	r2,1
  802100:	00000106 	br	802108 <logic+0x1e44>
  802104:	0005883a 	mov	r2,zero
  802108:	1007883a 	mov	r3,r2
  80210c:	e0bffd17 	ldw	r2,-12(fp)
  802110:	10c01a85 	stb	r3,106(r2)
  d->_g40 = !d->_g30;
  802114:	e0bffd17 	ldw	r2,-12(fp)
  802118:	10801a83 	ldbu	r2,106(r2)
  80211c:	10803fcc 	andi	r2,r2,255
  802120:	1080201c 	xori	r2,r2,128
  802124:	10bfe004 	addi	r2,r2,-128
  802128:	1005003a 	cmpeq	r2,r2,zero
  80212c:	1007883a 	mov	r3,r2
  802130:	e0bffd17 	ldw	r2,-12(fp)
  802134:	10c01bc5 	stb	r3,111(r2)
  d->_g37 = d->_g5 && d->_cg37;
  802138:	e0bffd17 	ldw	r2,-12(fp)
  80213c:	10801603 	ldbu	r2,88(r2)
  802140:	10803fcc 	andi	r2,r2,255
  802144:	1080201c 	xori	r2,r2,128
  802148:	10bfe004 	addi	r2,r2,-128
  80214c:	10000826 	beq	r2,zero,802170 <logic+0x1eac>
  802150:	e0bffd17 	ldw	r2,-12(fp)
  802154:	10803883 	ldbu	r2,226(r2)
  802158:	10803fcc 	andi	r2,r2,255
  80215c:	1080201c 	xori	r2,r2,128
  802160:	10bfe004 	addi	r2,r2,-128
  802164:	10000226 	beq	r2,zero,802170 <logic+0x1eac>
  802168:	00800044 	movi	r2,1
  80216c:	00000106 	br	802174 <logic+0x1eb0>
  802170:	0005883a 	mov	r2,zero
  802174:	1007883a 	mov	r3,r2
  802178:	e0bffd17 	ldw	r2,-12(fp)
  80217c:	10c01b45 	stb	r3,109(r2)
  d->_g46 = d->_pg45;
  802180:	e0bffd17 	ldw	r2,-12(fp)
  802184:	10c05503 	ldbu	r3,340(r2)
  802188:	e0bffd17 	ldw	r2,-12(fp)
  80218c:	10c01d05 	stb	r3,116(r2)
  d->_g49 = d->_pg48;
  802190:	e0bffd17 	ldw	r2,-12(fp)
  802194:	10c05543 	ldbu	r3,341(r2)
  802198:	e0bffd17 	ldw	r2,-12(fp)
  80219c:	10c01dc5 	stb	r3,119(r2)
  d->_g49 = d->_g9_e1 || d->_g46 || d->_g49;
  8021a0:	e0bffd17 	ldw	r2,-12(fp)
  8021a4:	10804a43 	ldbu	r2,297(r2)
  8021a8:	10803fcc 	andi	r2,r2,255
  8021ac:	1080201c 	xori	r2,r2,128
  8021b0:	10bfe004 	addi	r2,r2,-128
  8021b4:	10000c1e 	bne	r2,zero,8021e8 <logic+0x1f24>
  8021b8:	e0bffd17 	ldw	r2,-12(fp)
  8021bc:	10801d03 	ldbu	r2,116(r2)
  8021c0:	10803fcc 	andi	r2,r2,255
  8021c4:	1080201c 	xori	r2,r2,128
  8021c8:	10bfe004 	addi	r2,r2,-128
  8021cc:	1000061e 	bne	r2,zero,8021e8 <logic+0x1f24>
  8021d0:	e0bffd17 	ldw	r2,-12(fp)
  8021d4:	10801dc3 	ldbu	r2,119(r2)
  8021d8:	10803fcc 	andi	r2,r2,255
  8021dc:	1080201c 	xori	r2,r2,128
  8021e0:	10bfe004 	addi	r2,r2,-128
  8021e4:	10000226 	beq	r2,zero,8021f0 <logic+0x1f2c>
  8021e8:	00800044 	movi	r2,1
  8021ec:	00000106 	br	8021f4 <logic+0x1f30>
  8021f0:	0005883a 	mov	r2,zero
  8021f4:	1007883a 	mov	r3,r2
  8021f8:	e0bffd17 	ldw	r2,-12(fp)
  8021fc:	10c01dc5 	stb	r3,119(r2)
  d->_cg42 = d->_PaceMaker_local_pvarp_clk < PVARP_VALUE;
  802200:	e13ffd17 	ldw	r4,-12(fp)
  802204:	20800917 	ldw	r2,36(r4)
  802208:	20c00a17 	ldw	r3,40(r4)
  80220c:	04000044 	movi	r16,1
  802210:	000d883a 	mov	r6,zero
  802214:	01d01274 	movhi	r7,16457
  802218:	1009883a 	mov	r4,r2
  80221c:	180b883a 	mov	r5,r3
  802220:	0806f2c0 	call	806f2c <__ledf2>
  802224:	10000116 	blt	r2,zero,80222c <logic+0x1f68>
  802228:	0021883a 	mov	r16,zero
  80222c:	8007883a 	mov	r3,r16
  802230:	e0bffd17 	ldw	r2,-12(fp)
  802234:	10c038c5 	stb	r3,227(r2)
  d->_g46 = d->_g49 && !d->_cg42;
  802238:	e0bffd17 	ldw	r2,-12(fp)
  80223c:	10801dc3 	ldbu	r2,119(r2)
  802240:	10803fcc 	andi	r2,r2,255
  802244:	1080201c 	xori	r2,r2,128
  802248:	10bfe004 	addi	r2,r2,-128
  80224c:	10000826 	beq	r2,zero,802270 <logic+0x1fac>
  802250:	e0bffd17 	ldw	r2,-12(fp)
  802254:	108038c3 	ldbu	r2,227(r2)
  802258:	10803fcc 	andi	r2,r2,255
  80225c:	1080201c 	xori	r2,r2,128
  802260:	10bfe004 	addi	r2,r2,-128
  802264:	1000021e 	bne	r2,zero,802270 <logic+0x1fac>
  802268:	00800044 	movi	r2,1
  80226c:	00000106 	br	802274 <logic+0x1fb0>
  802270:	0005883a 	mov	r2,zero
  802274:	1007883a 	mov	r3,r2
  802278:	e0bffd17 	ldw	r2,-12(fp)
  80227c:	10c01d05 	stb	r3,116(r2)
  d->_cg47 = d->_PaceMaker_local__Atrig1;
  802280:	e0bffd17 	ldw	r2,-12(fp)
  802284:	10c00643 	ldbu	r3,25(r2)
  802288:	e0bffd17 	ldw	r2,-12(fp)
  80228c:	10c03945 	stb	r3,229(r2)
  d->_g48 = d->_g46 && !d->_cg47;
  802290:	e0bffd17 	ldw	r2,-12(fp)
  802294:	10801d03 	ldbu	r2,116(r2)
  802298:	10803fcc 	andi	r2,r2,255
  80229c:	1080201c 	xori	r2,r2,128
  8022a0:	10bfe004 	addi	r2,r2,-128
  8022a4:	10000826 	beq	r2,zero,8022c8 <logic+0x2004>
  8022a8:	e0bffd17 	ldw	r2,-12(fp)
  8022ac:	10803943 	ldbu	r2,229(r2)
  8022b0:	10803fcc 	andi	r2,r2,255
  8022b4:	1080201c 	xori	r2,r2,128
  8022b8:	10bfe004 	addi	r2,r2,-128
  8022bc:	1000021e 	bne	r2,zero,8022c8 <logic+0x2004>
  8022c0:	00800044 	movi	r2,1
  8022c4:	00000106 	br	8022cc <logic+0x2008>
  8022c8:	0005883a 	mov	r2,zero
  8022cc:	1007883a 	mov	r3,r2
  8022d0:	e0bffd17 	ldw	r2,-12(fp)
  8022d4:	10c01d85 	stb	r3,118(r2)
  d->_g42 = d->_g49 && d->_cg42;
  8022d8:	e0bffd17 	ldw	r2,-12(fp)
  8022dc:	10801dc3 	ldbu	r2,119(r2)
  8022e0:	10803fcc 	andi	r2,r2,255
  8022e4:	1080201c 	xori	r2,r2,128
  8022e8:	10bfe004 	addi	r2,r2,-128
  8022ec:	10000826 	beq	r2,zero,802310 <logic+0x204c>
  8022f0:	e0bffd17 	ldw	r2,-12(fp)
  8022f4:	108038c3 	ldbu	r2,227(r2)
  8022f8:	10803fcc 	andi	r2,r2,255
  8022fc:	1080201c 	xori	r2,r2,128
  802300:	10bfe004 	addi	r2,r2,-128
  802304:	10000226 	beq	r2,zero,802310 <logic+0x204c>
  802308:	00800044 	movi	r2,1
  80230c:	00000106 	br	802314 <logic+0x2050>
  802310:	0005883a 	mov	r2,zero
  802314:	1007883a 	mov	r3,r2
  802318:	e0bffd17 	ldw	r2,-12(fp)
  80231c:	10c01c05 	stb	r3,112(r2)
  if (d->_g42) {
  802320:	e0bffd17 	ldw	r2,-12(fp)
  802324:	10801c03 	ldbu	r2,112(r2)
  802328:	10803fcc 	andi	r2,r2,255
  80232c:	1080201c 	xori	r2,r2,128
  802330:	10bfe004 	addi	r2,r2,-128
  802334:	10002826 	beq	r2,zero,8023d8 <logic+0x2114>
    d->sleepT = (d->sleepT < (PVARP_VALUE - d->_PaceMaker_local_pvarp_clk)) ? d->sleepT : (PVARP_VALUE - d->_PaceMaker_local_pvarp_clk);
  802338:	e0bffd17 	ldw	r2,-12(fp)
  80233c:	14000217 	ldw	r16,8(r2)
  802340:	14400317 	ldw	r17,12(r2)
  802344:	e13ffd17 	ldw	r4,-12(fp)
  802348:	20800917 	ldw	r2,36(r4)
  80234c:	20c00a17 	ldw	r3,40(r4)
  802350:	100d883a 	mov	r6,r2
  802354:	180f883a 	mov	r7,r3
  802358:	0009883a 	mov	r4,zero
  80235c:	01501274 	movhi	r5,16457
  802360:	08070200 	call	807020 <__subdf3>
  802364:	1009883a 	mov	r4,r2
  802368:	180b883a 	mov	r5,r3
  80236c:	2005883a 	mov	r2,r4
  802370:	2807883a 	mov	r3,r5
  802374:	100d883a 	mov	r6,r2
  802378:	180f883a 	mov	r7,r3
  80237c:	8009883a 	mov	r4,r16
  802380:	880b883a 	mov	r5,r17
  802384:	0806f2c0 	call	806f2c <__ledf2>
  802388:	1000040e 	bge	r2,zero,80239c <logic+0x20d8>
  80238c:	e13ffd17 	ldw	r4,-12(fp)
  802390:	20800217 	ldw	r2,8(r4)
  802394:	20c00317 	ldw	r3,12(r4)
  802398:	00000c06 	br	8023cc <logic+0x2108>
  80239c:	e13ffd17 	ldw	r4,-12(fp)
  8023a0:	20800917 	ldw	r2,36(r4)
  8023a4:	20c00a17 	ldw	r3,40(r4)
  8023a8:	100d883a 	mov	r6,r2
  8023ac:	180f883a 	mov	r7,r3
  8023b0:	0009883a 	mov	r4,zero
  8023b4:	01501274 	movhi	r5,16457
  8023b8:	08070200 	call	807020 <__subdf3>
  8023bc:	1009883a 	mov	r4,r2
  8023c0:	180b883a 	mov	r5,r3
  8023c4:	2005883a 	mov	r2,r4
  8023c8:	2807883a 	mov	r3,r5
  8023cc:	e13ffd17 	ldw	r4,-12(fp)
  8023d0:	20800215 	stw	r2,8(r4)
  8023d4:	20c00315 	stw	r3,12(r4)
  }
  d->_cg43 = d->_PaceMaker_local__Atrig1;
  8023d8:	e0bffd17 	ldw	r2,-12(fp)
  8023dc:	10c00643 	ldbu	r3,25(r2)
  8023e0:	e0bffd17 	ldw	r2,-12(fp)
  8023e4:	10c03905 	stb	r3,228(r2)
  d->_g45 = d->_g42 && !d->_cg43;
  8023e8:	e0bffd17 	ldw	r2,-12(fp)
  8023ec:	10801c03 	ldbu	r2,112(r2)
  8023f0:	10803fcc 	andi	r2,r2,255
  8023f4:	1080201c 	xori	r2,r2,128
  8023f8:	10bfe004 	addi	r2,r2,-128
  8023fc:	10000826 	beq	r2,zero,802420 <logic+0x215c>
  802400:	e0bffd17 	ldw	r2,-12(fp)
  802404:	10803903 	ldbu	r2,228(r2)
  802408:	10803fcc 	andi	r2,r2,255
  80240c:	1080201c 	xori	r2,r2,128
  802410:	10bfe004 	addi	r2,r2,-128
  802414:	1000021e 	bne	r2,zero,802420 <logic+0x215c>
  802418:	00800044 	movi	r2,1
  80241c:	00000106 	br	802424 <logic+0x2160>
  802420:	0005883a 	mov	r2,zero
  802424:	1007883a 	mov	r3,r2
  802428:	e0bffd17 	ldw	r2,-12(fp)
  80242c:	10c01cc5 	stb	r3,115(r2)
  d->_g44_e2 = !(d->_g48 || d->_g45);
  802430:	e0bffd17 	ldw	r2,-12(fp)
  802434:	10801d83 	ldbu	r2,118(r2)
  802438:	10803fcc 	andi	r2,r2,255
  80243c:	1080201c 	xori	r2,r2,128
  802440:	10bfe004 	addi	r2,r2,-128
  802444:	1000081e 	bne	r2,zero,802468 <logic+0x21a4>
  802448:	e0bffd17 	ldw	r2,-12(fp)
  80244c:	10801cc3 	ldbu	r2,115(r2)
  802450:	10803fcc 	andi	r2,r2,255
  802454:	1080201c 	xori	r2,r2,128
  802458:	10bfe004 	addi	r2,r2,-128
  80245c:	1000021e 	bne	r2,zero,802468 <logic+0x21a4>
  802460:	00800044 	movi	r2,1
  802464:	00000106 	br	80246c <logic+0x21a8>
  802468:	0005883a 	mov	r2,zero
  80246c:	1007883a 	mov	r3,r2
  802470:	e0bffd17 	ldw	r2,-12(fp)
  802474:	10c04b85 	stb	r3,302(r2)
  d->_g47 = (d->_g42 && d->_cg43) || (d->_g46 && d->_cg47);
  802478:	e0bffd17 	ldw	r2,-12(fp)
  80247c:	10801c03 	ldbu	r2,112(r2)
  802480:	10803fcc 	andi	r2,r2,255
  802484:	1080201c 	xori	r2,r2,128
  802488:	10bfe004 	addi	r2,r2,-128
  80248c:	10000626 	beq	r2,zero,8024a8 <logic+0x21e4>
  802490:	e0bffd17 	ldw	r2,-12(fp)
  802494:	10803903 	ldbu	r2,228(r2)
  802498:	10803fcc 	andi	r2,r2,255
  80249c:	1080201c 	xori	r2,r2,128
  8024a0:	10bfe004 	addi	r2,r2,-128
  8024a4:	10000c1e 	bne	r2,zero,8024d8 <logic+0x2214>
  8024a8:	e0bffd17 	ldw	r2,-12(fp)
  8024ac:	10801d03 	ldbu	r2,116(r2)
  8024b0:	10803fcc 	andi	r2,r2,255
  8024b4:	1080201c 	xori	r2,r2,128
  8024b8:	10bfe004 	addi	r2,r2,-128
  8024bc:	10000826 	beq	r2,zero,8024e0 <logic+0x221c>
  8024c0:	e0bffd17 	ldw	r2,-12(fp)
  8024c4:	10803943 	ldbu	r2,229(r2)
  8024c8:	10803fcc 	andi	r2,r2,255
  8024cc:	1080201c 	xori	r2,r2,128
  8024d0:	10bfe004 	addi	r2,r2,-128
  8024d4:	10000226 	beq	r2,zero,8024e0 <logic+0x221c>
  8024d8:	00800044 	movi	r2,1
  8024dc:	00000106 	br	8024e4 <logic+0x2220>
  8024e0:	0005883a 	mov	r2,zero
  8024e4:	1007883a 	mov	r3,r2
  8024e8:	e0bffd17 	ldw	r2,-12(fp)
  8024ec:	10c01d45 	stb	r3,117(r2)
  d->_g43 = d->_g9_e1 || d->_g9;
  8024f0:	e0bffd17 	ldw	r2,-12(fp)
  8024f4:	10804a43 	ldbu	r2,297(r2)
  8024f8:	10803fcc 	andi	r2,r2,255
  8024fc:	1080201c 	xori	r2,r2,128
  802500:	10bfe004 	addi	r2,r2,-128
  802504:	1000061e 	bne	r2,zero,802520 <logic+0x225c>
  802508:	e0bffd17 	ldw	r2,-12(fp)
  80250c:	108016c3 	ldbu	r2,91(r2)
  802510:	10803fcc 	andi	r2,r2,255
  802514:	1080201c 	xori	r2,r2,128
  802518:	10bfe004 	addi	r2,r2,-128
  80251c:	10000226 	beq	r2,zero,802528 <logic+0x2264>
  802520:	00800044 	movi	r2,1
  802524:	00000106 	br	80252c <logic+0x2268>
  802528:	0005883a 	mov	r2,zero
  80252c:	1007883a 	mov	r3,r2
  802530:	e0bffd17 	ldw	r2,-12(fp)
  802534:	10c01c45 	stb	r3,113(r2)
  d->_cg51 = d->_PaceMaker_local__Atrig1;
  802538:	e0bffd17 	ldw	r2,-12(fp)
  80253c:	10c00643 	ldbu	r3,25(r2)
  802540:	e0bffd17 	ldw	r2,-12(fp)
  802544:	10c03985 	stb	r3,230(r2)
  d->_g54 = d->_g43 && !d->_cg51;
  802548:	e0bffd17 	ldw	r2,-12(fp)
  80254c:	10801c43 	ldbu	r2,113(r2)
  802550:	10803fcc 	andi	r2,r2,255
  802554:	1080201c 	xori	r2,r2,128
  802558:	10bfe004 	addi	r2,r2,-128
  80255c:	10000826 	beq	r2,zero,802580 <logic+0x22bc>
  802560:	e0bffd17 	ldw	r2,-12(fp)
  802564:	10803983 	ldbu	r2,230(r2)
  802568:	10803fcc 	andi	r2,r2,255
  80256c:	1080201c 	xori	r2,r2,128
  802570:	10bfe004 	addi	r2,r2,-128
  802574:	1000021e 	bne	r2,zero,802580 <logic+0x22bc>
  802578:	00800044 	movi	r2,1
  80257c:	00000106 	br	802584 <logic+0x22c0>
  802580:	0005883a 	mov	r2,zero
  802584:	1007883a 	mov	r3,r2
  802588:	e0bffd17 	ldw	r2,-12(fp)
  80258c:	10c01e85 	stb	r3,122(r2)
  d->_g52_e3 = !d->_g54;
  802590:	e0bffd17 	ldw	r2,-12(fp)
  802594:	10801e83 	ldbu	r2,122(r2)
  802598:	10803fcc 	andi	r2,r2,255
  80259c:	1080201c 	xori	r2,r2,128
  8025a0:	10bfe004 	addi	r2,r2,-128
  8025a4:	1005003a 	cmpeq	r2,r2,zero
  8025a8:	1007883a 	mov	r3,r2
  8025ac:	e0bffd17 	ldw	r2,-12(fp)
  8025b0:	10c04bc5 	stb	r3,303(r2)
  d->_g51 = d->_g43 && d->_cg51;
  8025b4:	e0bffd17 	ldw	r2,-12(fp)
  8025b8:	10801c43 	ldbu	r2,113(r2)
  8025bc:	10803fcc 	andi	r2,r2,255
  8025c0:	1080201c 	xori	r2,r2,128
  8025c4:	10bfe004 	addi	r2,r2,-128
  8025c8:	10000826 	beq	r2,zero,8025ec <logic+0x2328>
  8025cc:	e0bffd17 	ldw	r2,-12(fp)
  8025d0:	10803983 	ldbu	r2,230(r2)
  8025d4:	10803fcc 	andi	r2,r2,255
  8025d8:	1080201c 	xori	r2,r2,128
  8025dc:	10bfe004 	addi	r2,r2,-128
  8025e0:	10000226 	beq	r2,zero,8025ec <logic+0x2328>
  8025e4:	00800044 	movi	r2,1
  8025e8:	00000106 	br	8025f0 <logic+0x232c>
  8025ec:	0005883a 	mov	r2,zero
  8025f0:	1007883a 	mov	r3,r2
  8025f4:	e0bffd17 	ldw	r2,-12(fp)
  8025f8:	10c01e05 	stb	r3,120(r2)
  d->_g35 = d->_g9_e1 || (d->_g29 && !d->_cg57);
  8025fc:	e0bffd17 	ldw	r2,-12(fp)
  802600:	10804a43 	ldbu	r2,297(r2)
  802604:	10803fcc 	andi	r2,r2,255
  802608:	1080201c 	xori	r2,r2,128
  80260c:	10bfe004 	addi	r2,r2,-128
  802610:	10000c1e 	bne	r2,zero,802644 <logic+0x2380>
  802614:	e0bffd17 	ldw	r2,-12(fp)
  802618:	10801a43 	ldbu	r2,105(r2)
  80261c:	10803fcc 	andi	r2,r2,255
  802620:	1080201c 	xori	r2,r2,128
  802624:	10bfe004 	addi	r2,r2,-128
  802628:	10000826 	beq	r2,zero,80264c <logic+0x2388>
  80262c:	e0bffd17 	ldw	r2,-12(fp)
  802630:	108039c3 	ldbu	r2,231(r2)
  802634:	10803fcc 	andi	r2,r2,255
  802638:	1080201c 	xori	r2,r2,128
  80263c:	10bfe004 	addi	r2,r2,-128
  802640:	1000021e 	bne	r2,zero,80264c <logic+0x2388>
  802644:	00800044 	movi	r2,1
  802648:	00000106 	br	802650 <logic+0x238c>
  80264c:	0005883a 	mov	r2,zero
  802650:	1007883a 	mov	r3,r2
  802654:	e0bffd17 	ldw	r2,-12(fp)
  802658:	10c01b05 	stb	r3,108(r2)
  d->_g57 = !d->_g35;
  80265c:	e0bffd17 	ldw	r2,-12(fp)
  802660:	10801b03 	ldbu	r2,108(r2)
  802664:	10803fcc 	andi	r2,r2,255
  802668:	1080201c 	xori	r2,r2,128
  80266c:	10bfe004 	addi	r2,r2,-128
  802670:	1005003a 	cmpeq	r2,r2,zero
  802674:	1007883a 	mov	r3,r2
  802678:	e0bffd17 	ldw	r2,-12(fp)
  80267c:	10c01ec5 	stb	r3,123(r2)
  d->_g38 = (d->_g40 || d->_g37) && (d->_g44_e2 || d->_g47) && (d->_g52_e3 || d->_g51) && (d->_g57 || d->_g23) && (d->_g37 || d->_g47 || d->_g51 || d->_g23);
  802680:	e0bffd17 	ldw	r2,-12(fp)
  802684:	10801bc3 	ldbu	r2,111(r2)
  802688:	10803fcc 	andi	r2,r2,255
  80268c:	1080201c 	xori	r2,r2,128
  802690:	10bfe004 	addi	r2,r2,-128
  802694:	1000061e 	bne	r2,zero,8026b0 <logic+0x23ec>
  802698:	e0bffd17 	ldw	r2,-12(fp)
  80269c:	10801b43 	ldbu	r2,109(r2)
  8026a0:	10803fcc 	andi	r2,r2,255
  8026a4:	1080201c 	xori	r2,r2,128
  8026a8:	10bfe004 	addi	r2,r2,-128
  8026ac:	10003e26 	beq	r2,zero,8027a8 <logic+0x24e4>
  8026b0:	e0bffd17 	ldw	r2,-12(fp)
  8026b4:	10804b83 	ldbu	r2,302(r2)
  8026b8:	10803fcc 	andi	r2,r2,255
  8026bc:	1080201c 	xori	r2,r2,128
  8026c0:	10bfe004 	addi	r2,r2,-128
  8026c4:	1000061e 	bne	r2,zero,8026e0 <logic+0x241c>
  8026c8:	e0bffd17 	ldw	r2,-12(fp)
  8026cc:	10801d43 	ldbu	r2,117(r2)
  8026d0:	10803fcc 	andi	r2,r2,255
  8026d4:	1080201c 	xori	r2,r2,128
  8026d8:	10bfe004 	addi	r2,r2,-128
  8026dc:	10003226 	beq	r2,zero,8027a8 <logic+0x24e4>
  8026e0:	e0bffd17 	ldw	r2,-12(fp)
  8026e4:	10804bc3 	ldbu	r2,303(r2)
  8026e8:	10803fcc 	andi	r2,r2,255
  8026ec:	1080201c 	xori	r2,r2,128
  8026f0:	10bfe004 	addi	r2,r2,-128
  8026f4:	1000061e 	bne	r2,zero,802710 <logic+0x244c>
  8026f8:	e0bffd17 	ldw	r2,-12(fp)
  8026fc:	10801e03 	ldbu	r2,120(r2)
  802700:	10803fcc 	andi	r2,r2,255
  802704:	1080201c 	xori	r2,r2,128
  802708:	10bfe004 	addi	r2,r2,-128
  80270c:	10002626 	beq	r2,zero,8027a8 <logic+0x24e4>
  802710:	e0bffd17 	ldw	r2,-12(fp)
  802714:	10801ec3 	ldbu	r2,123(r2)
  802718:	10803fcc 	andi	r2,r2,255
  80271c:	1080201c 	xori	r2,r2,128
  802720:	10bfe004 	addi	r2,r2,-128
  802724:	1000061e 	bne	r2,zero,802740 <logic+0x247c>
  802728:	e0bffd17 	ldw	r2,-12(fp)
  80272c:	10801983 	ldbu	r2,102(r2)
  802730:	10803fcc 	andi	r2,r2,255
  802734:	1080201c 	xori	r2,r2,128
  802738:	10bfe004 	addi	r2,r2,-128
  80273c:	10001a26 	beq	r2,zero,8027a8 <logic+0x24e4>
  802740:	e0bffd17 	ldw	r2,-12(fp)
  802744:	10801b43 	ldbu	r2,109(r2)
  802748:	10803fcc 	andi	r2,r2,255
  80274c:	1080201c 	xori	r2,r2,128
  802750:	10bfe004 	addi	r2,r2,-128
  802754:	1000121e 	bne	r2,zero,8027a0 <logic+0x24dc>
  802758:	e0bffd17 	ldw	r2,-12(fp)
  80275c:	10801d43 	ldbu	r2,117(r2)
  802760:	10803fcc 	andi	r2,r2,255
  802764:	1080201c 	xori	r2,r2,128
  802768:	10bfe004 	addi	r2,r2,-128
  80276c:	10000c1e 	bne	r2,zero,8027a0 <logic+0x24dc>
  802770:	e0bffd17 	ldw	r2,-12(fp)
  802774:	10801e03 	ldbu	r2,120(r2)
  802778:	10803fcc 	andi	r2,r2,255
  80277c:	1080201c 	xori	r2,r2,128
  802780:	10bfe004 	addi	r2,r2,-128
  802784:	1000061e 	bne	r2,zero,8027a0 <logic+0x24dc>
  802788:	e0bffd17 	ldw	r2,-12(fp)
  80278c:	10801983 	ldbu	r2,102(r2)
  802790:	10803fcc 	andi	r2,r2,255
  802794:	1080201c 	xori	r2,r2,128
  802798:	10bfe004 	addi	r2,r2,-128
  80279c:	10000226 	beq	r2,zero,8027a8 <logic+0x24e4>
  8027a0:	00800044 	movi	r2,1
  8027a4:	00000106 	br	8027ac <logic+0x24e8>
  8027a8:	0005883a 	mov	r2,zero
  8027ac:	1007883a 	mov	r3,r2
  8027b0:	e0bffd17 	ldw	r2,-12(fp)
  8027b4:	10c01b85 	stb	r3,110(r2)
  d->_g38_e1 = d->_GO || d->_g38 || (d->_g23_e3 && !d->_cg34);
  8027b8:	e0bffd17 	ldw	r2,-12(fp)
  8027bc:	10803643 	ldbu	r2,217(r2)
  8027c0:	10803fcc 	andi	r2,r2,255
  8027c4:	1080201c 	xori	r2,r2,128
  8027c8:	10bfe004 	addi	r2,r2,-128
  8027cc:	1000121e 	bne	r2,zero,802818 <logic+0x2554>
  8027d0:	e0bffd17 	ldw	r2,-12(fp)
  8027d4:	10801b83 	ldbu	r2,110(r2)
  8027d8:	10803fcc 	andi	r2,r2,255
  8027dc:	1080201c 	xori	r2,r2,128
  8027e0:	10bfe004 	addi	r2,r2,-128
  8027e4:	10000c1e 	bne	r2,zero,802818 <logic+0x2554>
  8027e8:	e0bffd17 	ldw	r2,-12(fp)
  8027ec:	10804ac3 	ldbu	r2,299(r2)
  8027f0:	10803fcc 	andi	r2,r2,255
  8027f4:	1080201c 	xori	r2,r2,128
  8027f8:	10bfe004 	addi	r2,r2,-128
  8027fc:	10000826 	beq	r2,zero,802820 <logic+0x255c>
  802800:	e0bffd17 	ldw	r2,-12(fp)
  802804:	10803843 	ldbu	r2,225(r2)
  802808:	10803fcc 	andi	r2,r2,255
  80280c:	1080201c 	xori	r2,r2,128
  802810:	10bfe004 	addi	r2,r2,-128
  802814:	1000021e 	bne	r2,zero,802820 <logic+0x255c>
  802818:	00800044 	movi	r2,1
  80281c:	00000106 	br	802824 <logic+0x2560>
  802820:	0005883a 	mov	r2,zero
  802824:	1007883a 	mov	r3,r2
  802828:	e0bffd17 	ldw	r2,-12(fp)
  80282c:	10c04b45 	stb	r3,301(r2)
  d->_g44 = d->_pg102;
  802830:	e0bffd17 	ldw	r2,-12(fp)
  802834:	10c05583 	ldbu	r3,342(r2)
  802838:	e0bffd17 	ldw	r2,-12(fp)
  80283c:	10c01c85 	stb	r3,114(r2)
  d->_g58 = d->_pg91;
  802840:	e0bffd17 	ldw	r2,-12(fp)
  802844:	10c055c3 	ldbu	r3,343(r2)
  802848:	e0bffd17 	ldw	r2,-12(fp)
  80284c:	10c01f05 	stb	r3,124(r2)
  d->_g52 = !(d->_g44 || d->_g58);
  802850:	e0bffd17 	ldw	r2,-12(fp)
  802854:	10801c83 	ldbu	r2,114(r2)
  802858:	10803fcc 	andi	r2,r2,255
  80285c:	1080201c 	xori	r2,r2,128
  802860:	10bfe004 	addi	r2,r2,-128
  802864:	1000081e 	bne	r2,zero,802888 <logic+0x25c4>
  802868:	e0bffd17 	ldw	r2,-12(fp)
  80286c:	10801f03 	ldbu	r2,124(r2)
  802870:	10803fcc 	andi	r2,r2,255
  802874:	1080201c 	xori	r2,r2,128
  802878:	10bfe004 	addi	r2,r2,-128
  80287c:	1000021e 	bne	r2,zero,802888 <logic+0x25c4>
  802880:	00800044 	movi	r2,1
  802884:	00000106 	br	80288c <logic+0x25c8>
  802888:	0005883a 	mov	r2,zero
  80288c:	1007883a 	mov	r3,r2
  802890:	e0bffd17 	ldw	r2,-12(fp)
  802894:	10c01e45 	stb	r3,121(r2)
  d->_g58_e4 = d->_pg107;
  802898:	e0bffd17 	ldw	r2,-12(fp)
  80289c:	10c05603 	ldbu	r3,344(r2)
  8028a0:	e0bffd17 	ldw	r2,-12(fp)
  8028a4:	10c04c05 	stb	r3,304(r2)
  d->_cg134 = d->VS && !d->ignore_VEvent;
  8028a8:	e0bffd17 	ldw	r2,-12(fp)
  8028ac:	10800443 	ldbu	r2,17(r2)
  8028b0:	10803fcc 	andi	r2,r2,255
  8028b4:	1080201c 	xori	r2,r2,128
  8028b8:	10bfe004 	addi	r2,r2,-128
  8028bc:	10000826 	beq	r2,zero,8028e0 <logic+0x261c>
  8028c0:	e0bffd17 	ldw	r2,-12(fp)
  8028c4:	10800543 	ldbu	r2,21(r2)
  8028c8:	10803fcc 	andi	r2,r2,255
  8028cc:	1080201c 	xori	r2,r2,128
  8028d0:	10bfe004 	addi	r2,r2,-128
  8028d4:	1000021e 	bne	r2,zero,8028e0 <logic+0x261c>
  8028d8:	00800044 	movi	r2,1
  8028dc:	00000106 	br	8028e4 <logic+0x2620>
  8028e0:	0005883a 	mov	r2,zero
  8028e4:	1007883a 	mov	r3,r2
  8028e8:	e0bffd17 	ldw	r2,-12(fp)
  8028ec:	10c042c5 	stb	r3,267(r2)
  d->_g44_e2 = d->_g58_e4 && d->_cg134;
  8028f0:	e0bffd17 	ldw	r2,-12(fp)
  8028f4:	10804c03 	ldbu	r2,304(r2)
  8028f8:	10803fcc 	andi	r2,r2,255
  8028fc:	1080201c 	xori	r2,r2,128
  802900:	10bfe004 	addi	r2,r2,-128
  802904:	10000826 	beq	r2,zero,802928 <logic+0x2664>
  802908:	e0bffd17 	ldw	r2,-12(fp)
  80290c:	108042c3 	ldbu	r2,267(r2)
  802910:	10803fcc 	andi	r2,r2,255
  802914:	1080201c 	xori	r2,r2,128
  802918:	10bfe004 	addi	r2,r2,-128
  80291c:	10000226 	beq	r2,zero,802928 <logic+0x2664>
  802920:	00800044 	movi	r2,1
  802924:	00000106 	br	80292c <logic+0x2668>
  802928:	0005883a 	mov	r2,zero
  80292c:	1007883a 	mov	r3,r2
  802930:	e0bffd17 	ldw	r2,-12(fp)
  802934:	10c04b85 	stb	r3,302(r2)
  if (d->_g44_e2) {
  802938:	e0bffd17 	ldw	r2,-12(fp)
  80293c:	10804b83 	ldbu	r2,302(r2)
  802940:	10803fcc 	andi	r2,r2,255
  802944:	1080201c 	xori	r2,r2,128
  802948:	10bfe004 	addi	r2,r2,-128
  80294c:	10000326 	beq	r2,zero,80295c <logic+0x2698>
    d->_PaceMaker_local__Atrig6 = 1;
  802950:	e0bffd17 	ldw	r2,-12(fp)
  802954:	00c00044 	movi	r3,1
  802958:	10c00c05 	stb	r3,48(r2)
  }
  d->_g52_e3 = d->_g58_e4 && !d->_cg134;
  80295c:	e0bffd17 	ldw	r2,-12(fp)
  802960:	10804c03 	ldbu	r2,304(r2)
  802964:	10803fcc 	andi	r2,r2,255
  802968:	1080201c 	xori	r2,r2,128
  80296c:	10bfe004 	addi	r2,r2,-128
  802970:	10000826 	beq	r2,zero,802994 <logic+0x26d0>
  802974:	e0bffd17 	ldw	r2,-12(fp)
  802978:	108042c3 	ldbu	r2,267(r2)
  80297c:	10803fcc 	andi	r2,r2,255
  802980:	1080201c 	xori	r2,r2,128
  802984:	10bfe004 	addi	r2,r2,-128
  802988:	1000021e 	bne	r2,zero,802994 <logic+0x26d0>
  80298c:	00800044 	movi	r2,1
  802990:	00000106 	br	802998 <logic+0x26d4>
  802994:	0005883a 	mov	r2,zero
  802998:	1007883a 	mov	r3,r2
  80299c:	e0bffd17 	ldw	r2,-12(fp)
  8029a0:	10c04bc5 	stb	r3,303(r2)
  d->_cg137 = d->AS && !d->ignore_AEvent;
  8029a4:	e0bffd17 	ldw	r2,-12(fp)
  8029a8:	10800403 	ldbu	r2,16(r2)
  8029ac:	10803fcc 	andi	r2,r2,255
  8029b0:	1080201c 	xori	r2,r2,128
  8029b4:	10bfe004 	addi	r2,r2,-128
  8029b8:	10000826 	beq	r2,zero,8029dc <logic+0x2718>
  8029bc:	e0bffd17 	ldw	r2,-12(fp)
  8029c0:	10800503 	ldbu	r2,20(r2)
  8029c4:	10803fcc 	andi	r2,r2,255
  8029c8:	1080201c 	xori	r2,r2,128
  8029cc:	10bfe004 	addi	r2,r2,-128
  8029d0:	1000021e 	bne	r2,zero,8029dc <logic+0x2718>
  8029d4:	00800044 	movi	r2,1
  8029d8:	00000106 	br	8029e0 <logic+0x271c>
  8029dc:	0005883a 	mov	r2,zero
  8029e0:	1007883a 	mov	r3,r2
  8029e4:	e0bffd17 	ldw	r2,-12(fp)
  8029e8:	10c04305 	stb	r3,268(r2)
  d->_g59 = d->_g52_e3 && d->_cg137;
  8029ec:	e0bffd17 	ldw	r2,-12(fp)
  8029f0:	10804bc3 	ldbu	r2,303(r2)
  8029f4:	10803fcc 	andi	r2,r2,255
  8029f8:	1080201c 	xori	r2,r2,128
  8029fc:	10bfe004 	addi	r2,r2,-128
  802a00:	10000826 	beq	r2,zero,802a24 <logic+0x2760>
  802a04:	e0bffd17 	ldw	r2,-12(fp)
  802a08:	10804303 	ldbu	r2,268(r2)
  802a0c:	10803fcc 	andi	r2,r2,255
  802a10:	1080201c 	xori	r2,r2,128
  802a14:	10bfe004 	addi	r2,r2,-128
  802a18:	10000226 	beq	r2,zero,802a24 <logic+0x2760>
  802a1c:	00800044 	movi	r2,1
  802a20:	00000106 	br	802a28 <logic+0x2764>
  802a24:	0005883a 	mov	r2,zero
  802a28:	1007883a 	mov	r3,r2
  802a2c:	e0bffd17 	ldw	r2,-12(fp)
  802a30:	10c01f45 	stb	r3,125(r2)
  if (d->_g59) {
  802a34:	e0bffd17 	ldw	r2,-12(fp)
  802a38:	10801f43 	ldbu	r2,125(r2)
  802a3c:	10803fcc 	andi	r2,r2,255
  802a40:	1080201c 	xori	r2,r2,128
  802a44:	10bfe004 	addi	r2,r2,-128
  802a48:	10000326 	beq	r2,zero,802a58 <logic+0x2794>
    d->_PaceMaker_local__Atrig7 = 1;
  802a4c:	e0bffd17 	ldw	r2,-12(fp)
  802a50:	00c00044 	movi	r3,1
  802a54:	10c00c45 	stb	r3,49(r2)
  }
  d->_g34 = d->_pg109;
  802a58:	e0bffd17 	ldw	r2,-12(fp)
  802a5c:	10c05643 	ldbu	r3,345(r2)
  802a60:	e0bffd17 	ldw	r2,-12(fp)
  802a64:	10c01ac5 	stb	r3,107(r2)
  if (d->_g34) {
  802a68:	e0bffd17 	ldw	r2,-12(fp)
  802a6c:	10801ac3 	ldbu	r2,107(r2)
  802a70:	10803fcc 	andi	r2,r2,255
  802a74:	1080201c 	xori	r2,r2,128
  802a78:	10bfe004 	addi	r2,r2,-128
  802a7c:	10001226 	beq	r2,zero,802ac8 <logic+0x2804>
    d->_PaceMaker_local_aei_clk += d->deltaT;
  802a80:	e13ffd17 	ldw	r4,-12(fp)
  802a84:	20800f17 	ldw	r2,60(r4)
  802a88:	20c01017 	ldw	r3,64(r4)
  802a8c:	e1bffd17 	ldw	r6,-12(fp)
  802a90:	31000017 	ldw	r4,0(r6)
  802a94:	31400117 	ldw	r5,4(r6)
  802a98:	200d883a 	mov	r6,r4
  802a9c:	280f883a 	mov	r7,r5
  802aa0:	1009883a 	mov	r4,r2
  802aa4:	180b883a 	mov	r5,r3
  802aa8:	08065a40 	call	8065a4 <__adddf3>
  802aac:	1009883a 	mov	r4,r2
  802ab0:	180b883a 	mov	r5,r3
  802ab4:	2005883a 	mov	r2,r4
  802ab8:	2807883a 	mov	r3,r5
  802abc:	e13ffd17 	ldw	r4,-12(fp)
  802ac0:	20800f15 	stw	r2,60(r4)
  802ac4:	20c01015 	stw	r3,64(r4)
  }
  d->_g137 = d->_g52_e3 && !d->_cg137;
  802ac8:	e0bffd17 	ldw	r2,-12(fp)
  802acc:	10804bc3 	ldbu	r2,303(r2)
  802ad0:	10803fcc 	andi	r2,r2,255
  802ad4:	1080201c 	xori	r2,r2,128
  802ad8:	10bfe004 	addi	r2,r2,-128
  802adc:	10000826 	beq	r2,zero,802b00 <logic+0x283c>
  802ae0:	e0bffd17 	ldw	r2,-12(fp)
  802ae4:	10804303 	ldbu	r2,268(r2)
  802ae8:	10803fcc 	andi	r2,r2,255
  802aec:	1080201c 	xori	r2,r2,128
  802af0:	10bfe004 	addi	r2,r2,-128
  802af4:	1000021e 	bne	r2,zero,802b00 <logic+0x283c>
  802af8:	00800044 	movi	r2,1
  802afc:	00000106 	br	802b04 <logic+0x2840>
  802b00:	0005883a 	mov	r2,zero
  802b04:	1007883a 	mov	r3,r2
  802b08:	e0bffd17 	ldw	r2,-12(fp)
  802b0c:	10c02c45 	stb	r3,177(r2)
  d->_cg139 = !d->AS && d->_PaceMaker_local_aei_clk >= AEI_VALUE;
  802b10:	e0bffd17 	ldw	r2,-12(fp)
  802b14:	10800403 	ldbu	r2,16(r2)
  802b18:	10803fcc 	andi	r2,r2,255
  802b1c:	1080201c 	xori	r2,r2,128
  802b20:	10bfe004 	addi	r2,r2,-128
  802b24:	10000b1e 	bne	r2,zero,802b54 <logic+0x2890>
  802b28:	e13ffd17 	ldw	r4,-12(fp)
  802b2c:	20800f17 	ldw	r2,60(r4)
  802b30:	20c01017 	ldw	r3,64(r4)
  802b34:	000d883a 	mov	r6,zero
  802b38:	01d02274 	movhi	r7,16521
  802b3c:	1009883a 	mov	r4,r2
  802b40:	180b883a 	mov	r5,r3
  802b44:	0806e500 	call	806e50 <__gedf2>
  802b48:	10000216 	blt	r2,zero,802b54 <logic+0x2890>
  802b4c:	00800044 	movi	r2,1
  802b50:	00000106 	br	802b58 <logic+0x2894>
  802b54:	0005883a 	mov	r2,zero
  802b58:	1007883a 	mov	r3,r2
  802b5c:	e0bffd17 	ldw	r2,-12(fp)
  802b60:	10c04285 	stb	r3,266(r2)
  d->_g140 = d->_g137 && d->_cg139;
  802b64:	e0bffd17 	ldw	r2,-12(fp)
  802b68:	10802c43 	ldbu	r2,177(r2)
  802b6c:	10803fcc 	andi	r2,r2,255
  802b70:	1080201c 	xori	r2,r2,128
  802b74:	10bfe004 	addi	r2,r2,-128
  802b78:	10000826 	beq	r2,zero,802b9c <logic+0x28d8>
  802b7c:	e0bffd17 	ldw	r2,-12(fp)
  802b80:	10804283 	ldbu	r2,266(r2)
  802b84:	10803fcc 	andi	r2,r2,255
  802b88:	1080201c 	xori	r2,r2,128
  802b8c:	10bfe004 	addi	r2,r2,-128
  802b90:	10000226 	beq	r2,zero,802b9c <logic+0x28d8>
  802b94:	00800044 	movi	r2,1
  802b98:	00000106 	br	802ba0 <logic+0x28dc>
  802b9c:	0005883a 	mov	r2,zero
  802ba0:	1007883a 	mov	r3,r2
  802ba4:	e0bffd17 	ldw	r2,-12(fp)
  802ba8:	10c02d05 	stb	r3,180(r2)
  if (d->_g140) {
  802bac:	e0bffd17 	ldw	r2,-12(fp)
  802bb0:	10802d03 	ldbu	r2,180(r2)
  802bb4:	10803fcc 	andi	r2,r2,255
  802bb8:	1080201c 	xori	r2,r2,128
  802bbc:	10bfe004 	addi	r2,r2,-128
  802bc0:	10000326 	beq	r2,zero,802bd0 <logic+0x290c>
    d->_PaceMaker_local__Atrig8 = 1;
  802bc4:	e0bffd17 	ldw	r2,-12(fp)
  802bc8:	00c00044 	movi	r3,1
  802bcc:	10c00c85 	stb	r3,50(r2)
  }
  d->_g120 = d->_g58 || d->_g44;
  802bd0:	e0bffd17 	ldw	r2,-12(fp)
  802bd4:	10801f03 	ldbu	r2,124(r2)
  802bd8:	10803fcc 	andi	r2,r2,255
  802bdc:	1080201c 	xori	r2,r2,128
  802be0:	10bfe004 	addi	r2,r2,-128
  802be4:	1000061e 	bne	r2,zero,802c00 <logic+0x293c>
  802be8:	e0bffd17 	ldw	r2,-12(fp)
  802bec:	10801c83 	ldbu	r2,114(r2)
  802bf0:	10803fcc 	andi	r2,r2,255
  802bf4:	1080201c 	xori	r2,r2,128
  802bf8:	10bfe004 	addi	r2,r2,-128
  802bfc:	10000226 	beq	r2,zero,802c08 <logic+0x2944>
  802c00:	00800044 	movi	r2,1
  802c04:	00000106 	br	802c0c <logic+0x2948>
  802c08:	0005883a 	mov	r2,zero
  802c0c:	1007883a 	mov	r3,r2
  802c10:	e0bffd17 	ldw	r2,-12(fp)
  802c14:	10c02945 	stb	r3,165(r2)
  d->_cg121 = d->_PaceMaker_local_aei_clk < AEI_VALUE;
  802c18:	e13ffd17 	ldw	r4,-12(fp)
  802c1c:	20800f17 	ldw	r2,60(r4)
  802c20:	20c01017 	ldw	r3,64(r4)
  802c24:	04000044 	movi	r16,1
  802c28:	000d883a 	mov	r6,zero
  802c2c:	01d02274 	movhi	r7,16521
  802c30:	1009883a 	mov	r4,r2
  802c34:	180b883a 	mov	r5,r3
  802c38:	0806f2c0 	call	806f2c <__ledf2>
  802c3c:	10000116 	blt	r2,zero,802c44 <logic+0x2980>
  802c40:	0021883a 	mov	r16,zero
  802c44:	8007883a 	mov	r3,r16
  802c48:	e0bffd17 	ldw	r2,-12(fp)
  802c4c:	10c04145 	stb	r3,261(r2)
  d->_g126 = d->_g120 && d->_cg121;
  802c50:	e0bffd17 	ldw	r2,-12(fp)
  802c54:	10802943 	ldbu	r2,165(r2)
  802c58:	10803fcc 	andi	r2,r2,255
  802c5c:	1080201c 	xori	r2,r2,128
  802c60:	10bfe004 	addi	r2,r2,-128
  802c64:	10000826 	beq	r2,zero,802c88 <logic+0x29c4>
  802c68:	e0bffd17 	ldw	r2,-12(fp)
  802c6c:	10804143 	ldbu	r2,261(r2)
  802c70:	10803fcc 	andi	r2,r2,255
  802c74:	1080201c 	xori	r2,r2,128
  802c78:	10bfe004 	addi	r2,r2,-128
  802c7c:	10000226 	beq	r2,zero,802c88 <logic+0x29c4>
  802c80:	00800044 	movi	r2,1
  802c84:	00000106 	br	802c8c <logic+0x29c8>
  802c88:	0005883a 	mov	r2,zero
  802c8c:	1007883a 	mov	r3,r2
  802c90:	e0bffd17 	ldw	r2,-12(fp)
  802c94:	10c02a85 	stb	r3,170(r2)
  if (d->_g126) {
  802c98:	e0bffd17 	ldw	r2,-12(fp)
  802c9c:	10802a83 	ldbu	r2,170(r2)
  802ca0:	10803fcc 	andi	r2,r2,255
  802ca4:	1080201c 	xori	r2,r2,128
  802ca8:	10bfe004 	addi	r2,r2,-128
  802cac:	10002826 	beq	r2,zero,802d50 <logic+0x2a8c>
    d->sleepT = (d->sleepT < (AEI_VALUE - d->_PaceMaker_local_aei_clk)) ? d->sleepT : (AEI_VALUE - d->_PaceMaker_local_aei_clk);
  802cb0:	e0bffd17 	ldw	r2,-12(fp)
  802cb4:	14000217 	ldw	r16,8(r2)
  802cb8:	14400317 	ldw	r17,12(r2)
  802cbc:	e13ffd17 	ldw	r4,-12(fp)
  802cc0:	20800f17 	ldw	r2,60(r4)
  802cc4:	20c01017 	ldw	r3,64(r4)
  802cc8:	100d883a 	mov	r6,r2
  802ccc:	180f883a 	mov	r7,r3
  802cd0:	0009883a 	mov	r4,zero
  802cd4:	01502274 	movhi	r5,16521
  802cd8:	08070200 	call	807020 <__subdf3>
  802cdc:	1009883a 	mov	r4,r2
  802ce0:	180b883a 	mov	r5,r3
  802ce4:	2005883a 	mov	r2,r4
  802ce8:	2807883a 	mov	r3,r5
  802cec:	100d883a 	mov	r6,r2
  802cf0:	180f883a 	mov	r7,r3
  802cf4:	8009883a 	mov	r4,r16
  802cf8:	880b883a 	mov	r5,r17
  802cfc:	0806f2c0 	call	806f2c <__ledf2>
  802d00:	1000040e 	bge	r2,zero,802d14 <logic+0x2a50>
  802d04:	e13ffd17 	ldw	r4,-12(fp)
  802d08:	20800217 	ldw	r2,8(r4)
  802d0c:	20c00317 	ldw	r3,12(r4)
  802d10:	00000c06 	br	802d44 <logic+0x2a80>
  802d14:	e13ffd17 	ldw	r4,-12(fp)
  802d18:	20800f17 	ldw	r2,60(r4)
  802d1c:	20c01017 	ldw	r3,64(r4)
  802d20:	100d883a 	mov	r6,r2
  802d24:	180f883a 	mov	r7,r3
  802d28:	0009883a 	mov	r4,zero
  802d2c:	01502274 	movhi	r5,16521
  802d30:	08070200 	call	807020 <__subdf3>
  802d34:	1009883a 	mov	r4,r2
  802d38:	180b883a 	mov	r5,r3
  802d3c:	2005883a 	mov	r2,r4
  802d40:	2807883a 	mov	r3,r5
  802d44:	e13ffd17 	ldw	r4,-12(fp)
  802d48:	20800215 	stw	r2,8(r4)
  802d4c:	20c00315 	stw	r3,12(r4)
  }
  d->_cg122 = d->_PaceMaker_local__Atrig6 || d->_PaceMaker_local__Atrig7 || d->_PaceMaker_local__Atrig8;
  802d50:	e0bffd17 	ldw	r2,-12(fp)
  802d54:	10800c03 	ldbu	r2,48(r2)
  802d58:	10803fcc 	andi	r2,r2,255
  802d5c:	1080201c 	xori	r2,r2,128
  802d60:	10bfe004 	addi	r2,r2,-128
  802d64:	10000c1e 	bne	r2,zero,802d98 <logic+0x2ad4>
  802d68:	e0bffd17 	ldw	r2,-12(fp)
  802d6c:	10800c43 	ldbu	r2,49(r2)
  802d70:	10803fcc 	andi	r2,r2,255
  802d74:	1080201c 	xori	r2,r2,128
  802d78:	10bfe004 	addi	r2,r2,-128
  802d7c:	1000061e 	bne	r2,zero,802d98 <logic+0x2ad4>
  802d80:	e0bffd17 	ldw	r2,-12(fp)
  802d84:	10800c83 	ldbu	r2,50(r2)
  802d88:	10803fcc 	andi	r2,r2,255
  802d8c:	1080201c 	xori	r2,r2,128
  802d90:	10bfe004 	addi	r2,r2,-128
  802d94:	10000226 	beq	r2,zero,802da0 <logic+0x2adc>
  802d98:	00800044 	movi	r2,1
  802d9c:	00000106 	br	802da4 <logic+0x2ae0>
  802da0:	0005883a 	mov	r2,zero
  802da4:	1007883a 	mov	r3,r2
  802da8:	e0bffd17 	ldw	r2,-12(fp)
  802dac:	10c04105 	stb	r3,260(r2)
  d->_g121 = d->_g120 && !d->_cg121;
  802db0:	e0bffd17 	ldw	r2,-12(fp)
  802db4:	10802943 	ldbu	r2,165(r2)
  802db8:	10803fcc 	andi	r2,r2,255
  802dbc:	1080201c 	xori	r2,r2,128
  802dc0:	10bfe004 	addi	r2,r2,-128
  802dc4:	10000826 	beq	r2,zero,802de8 <logic+0x2b24>
  802dc8:	e0bffd17 	ldw	r2,-12(fp)
  802dcc:	10804143 	ldbu	r2,261(r2)
  802dd0:	10803fcc 	andi	r2,r2,255
  802dd4:	1080201c 	xori	r2,r2,128
  802dd8:	10bfe004 	addi	r2,r2,-128
  802ddc:	1000021e 	bne	r2,zero,802de8 <logic+0x2b24>
  802de0:	00800044 	movi	r2,1
  802de4:	00000106 	br	802dec <logic+0x2b28>
  802de8:	0005883a 	mov	r2,zero
  802dec:	1007883a 	mov	r3,r2
  802df0:	e0bffd17 	ldw	r2,-12(fp)
  802df4:	10c02985 	stb	r3,166(r2)
  d->_cg124 = d->_PaceMaker_local__Atrig6 || d->_PaceMaker_local__Atrig7 || d->_PaceMaker_local__Atrig8;
  802df8:	e0bffd17 	ldw	r2,-12(fp)
  802dfc:	10800c03 	ldbu	r2,48(r2)
  802e00:	10803fcc 	andi	r2,r2,255
  802e04:	1080201c 	xori	r2,r2,128
  802e08:	10bfe004 	addi	r2,r2,-128
  802e0c:	10000c1e 	bne	r2,zero,802e40 <logic+0x2b7c>
  802e10:	e0bffd17 	ldw	r2,-12(fp)
  802e14:	10800c43 	ldbu	r2,49(r2)
  802e18:	10803fcc 	andi	r2,r2,255
  802e1c:	1080201c 	xori	r2,r2,128
  802e20:	10bfe004 	addi	r2,r2,-128
  802e24:	1000061e 	bne	r2,zero,802e40 <logic+0x2b7c>
  802e28:	e0bffd17 	ldw	r2,-12(fp)
  802e2c:	10800c83 	ldbu	r2,50(r2)
  802e30:	10803fcc 	andi	r2,r2,255
  802e34:	1080201c 	xori	r2,r2,128
  802e38:	10bfe004 	addi	r2,r2,-128
  802e3c:	10000226 	beq	r2,zero,802e48 <logic+0x2b84>
  802e40:	00800044 	movi	r2,1
  802e44:	00000106 	br	802e4c <logic+0x2b88>
  802e48:	0005883a 	mov	r2,zero
  802e4c:	1007883a 	mov	r3,r2
  802e50:	e0bffd17 	ldw	r2,-12(fp)
  802e54:	10c04185 	stb	r3,262(r2)
  d->_g123 = (d->_g126 && d->_cg122) || (d->_g121 && d->_cg124);
  802e58:	e0bffd17 	ldw	r2,-12(fp)
  802e5c:	10802a83 	ldbu	r2,170(r2)
  802e60:	10803fcc 	andi	r2,r2,255
  802e64:	1080201c 	xori	r2,r2,128
  802e68:	10bfe004 	addi	r2,r2,-128
  802e6c:	10000626 	beq	r2,zero,802e88 <logic+0x2bc4>
  802e70:	e0bffd17 	ldw	r2,-12(fp)
  802e74:	10804103 	ldbu	r2,260(r2)
  802e78:	10803fcc 	andi	r2,r2,255
  802e7c:	1080201c 	xori	r2,r2,128
  802e80:	10bfe004 	addi	r2,r2,-128
  802e84:	10000c1e 	bne	r2,zero,802eb8 <logic+0x2bf4>
  802e88:	e0bffd17 	ldw	r2,-12(fp)
  802e8c:	10802983 	ldbu	r2,166(r2)
  802e90:	10803fcc 	andi	r2,r2,255
  802e94:	1080201c 	xori	r2,r2,128
  802e98:	10bfe004 	addi	r2,r2,-128
  802e9c:	10000826 	beq	r2,zero,802ec0 <logic+0x2bfc>
  802ea0:	e0bffd17 	ldw	r2,-12(fp)
  802ea4:	10804183 	ldbu	r2,262(r2)
  802ea8:	10803fcc 	andi	r2,r2,255
  802eac:	1080201c 	xori	r2,r2,128
  802eb0:	10bfe004 	addi	r2,r2,-128
  802eb4:	10000226 	beq	r2,zero,802ec0 <logic+0x2bfc>
  802eb8:	00800044 	movi	r2,1
  802ebc:	00000106 	br	802ec4 <logic+0x2c00>
  802ec0:	0005883a 	mov	r2,zero
  802ec4:	1007883a 	mov	r3,r2
  802ec8:	e0bffd17 	ldw	r2,-12(fp)
  802ecc:	10c02a05 	stb	r3,168(r2)
  d->_g131_e2 = !d->_g34;
  802ed0:	e0bffd17 	ldw	r2,-12(fp)
  802ed4:	10801ac3 	ldbu	r2,107(r2)
  802ed8:	10803fcc 	andi	r2,r2,255
  802edc:	1080201c 	xori	r2,r2,128
  802ee0:	10bfe004 	addi	r2,r2,-128
  802ee4:	1005003a 	cmpeq	r2,r2,zero
  802ee8:	1007883a 	mov	r3,r2
  802eec:	e0bffd17 	ldw	r2,-12(fp)
  802ef0:	10c04d85 	stb	r3,310(r2)
  d->_cg130 = d->_PaceMaker_local__Atrig6 || d->_PaceMaker_local__Atrig7 || d->_PaceMaker_local__Atrig8;
  802ef4:	e0bffd17 	ldw	r2,-12(fp)
  802ef8:	10800c03 	ldbu	r2,48(r2)
  802efc:	10803fcc 	andi	r2,r2,255
  802f00:	1080201c 	xori	r2,r2,128
  802f04:	10bfe004 	addi	r2,r2,-128
  802f08:	10000c1e 	bne	r2,zero,802f3c <logic+0x2c78>
  802f0c:	e0bffd17 	ldw	r2,-12(fp)
  802f10:	10800c43 	ldbu	r2,49(r2)
  802f14:	10803fcc 	andi	r2,r2,255
  802f18:	1080201c 	xori	r2,r2,128
  802f1c:	10bfe004 	addi	r2,r2,-128
  802f20:	1000061e 	bne	r2,zero,802f3c <logic+0x2c78>
  802f24:	e0bffd17 	ldw	r2,-12(fp)
  802f28:	10800c83 	ldbu	r2,50(r2)
  802f2c:	10803fcc 	andi	r2,r2,255
  802f30:	1080201c 	xori	r2,r2,128
  802f34:	10bfe004 	addi	r2,r2,-128
  802f38:	10000226 	beq	r2,zero,802f44 <logic+0x2c80>
  802f3c:	00800044 	movi	r2,1
  802f40:	00000106 	br	802f48 <logic+0x2c84>
  802f44:	0005883a 	mov	r2,zero
  802f48:	1007883a 	mov	r3,r2
  802f4c:	e0bffd17 	ldw	r2,-12(fp)
  802f50:	10c04245 	stb	r3,265(r2)
  d->_g131 = d->_g34 && d->_cg130;
  802f54:	e0bffd17 	ldw	r2,-12(fp)
  802f58:	10801ac3 	ldbu	r2,107(r2)
  802f5c:	10803fcc 	andi	r2,r2,255
  802f60:	1080201c 	xori	r2,r2,128
  802f64:	10bfe004 	addi	r2,r2,-128
  802f68:	10000826 	beq	r2,zero,802f8c <logic+0x2cc8>
  802f6c:	e0bffd17 	ldw	r2,-12(fp)
  802f70:	10804243 	ldbu	r2,265(r2)
  802f74:	10803fcc 	andi	r2,r2,255
  802f78:	1080201c 	xori	r2,r2,128
  802f7c:	10bfe004 	addi	r2,r2,-128
  802f80:	10000226 	beq	r2,zero,802f8c <logic+0x2cc8>
  802f84:	00800044 	movi	r2,1
  802f88:	00000106 	br	802f90 <logic+0x2ccc>
  802f8c:	0005883a 	mov	r2,zero
  802f90:	1007883a 	mov	r3,r2
  802f94:	e0bffd17 	ldw	r2,-12(fp)
  802f98:	10c02b45 	stb	r3,173(r2)
  d->_g134 = !d->_g58_e4;
  802f9c:	e0bffd17 	ldw	r2,-12(fp)
  802fa0:	10804c03 	ldbu	r2,304(r2)
  802fa4:	10803fcc 	andi	r2,r2,255
  802fa8:	1080201c 	xori	r2,r2,128
  802fac:	10bfe004 	addi	r2,r2,-128
  802fb0:	1005003a 	cmpeq	r2,r2,zero
  802fb4:	1007883a 	mov	r3,r2
  802fb8:	e0bffd17 	ldw	r2,-12(fp)
  802fbc:	10c02b85 	stb	r3,174(r2)
  d->_g138 = d->_g44_e2 || d->_g59 || d->_g140;
  802fc0:	e0bffd17 	ldw	r2,-12(fp)
  802fc4:	10804b83 	ldbu	r2,302(r2)
  802fc8:	10803fcc 	andi	r2,r2,255
  802fcc:	1080201c 	xori	r2,r2,128
  802fd0:	10bfe004 	addi	r2,r2,-128
  802fd4:	10000c1e 	bne	r2,zero,803008 <logic+0x2d44>
  802fd8:	e0bffd17 	ldw	r2,-12(fp)
  802fdc:	10801f43 	ldbu	r2,125(r2)
  802fe0:	10803fcc 	andi	r2,r2,255
  802fe4:	1080201c 	xori	r2,r2,128
  802fe8:	10bfe004 	addi	r2,r2,-128
  802fec:	1000061e 	bne	r2,zero,803008 <logic+0x2d44>
  802ff0:	e0bffd17 	ldw	r2,-12(fp)
  802ff4:	10802d03 	ldbu	r2,180(r2)
  802ff8:	10803fcc 	andi	r2,r2,255
  802ffc:	1080201c 	xori	r2,r2,128
  803000:	10bfe004 	addi	r2,r2,-128
  803004:	10000226 	beq	r2,zero,803010 <logic+0x2d4c>
  803008:	00800044 	movi	r2,1
  80300c:	00000106 	br	803014 <logic+0x2d50>
  803010:	0005883a 	mov	r2,zero
  803014:	1007883a 	mov	r3,r2
  803018:	e0bffd17 	ldw	r2,-12(fp)
  80301c:	10c02c85 	stb	r3,178(r2)
  d->_g135 = (d->_g52 || d->_g123) && (d->_g131_e2 || d->_g131) && (d->_g134 || d->_g138) && (d->_g123 || d->_g131 || d->_g138);
  803020:	e0bffd17 	ldw	r2,-12(fp)
  803024:	10801e43 	ldbu	r2,121(r2)
  803028:	10803fcc 	andi	r2,r2,255
  80302c:	1080201c 	xori	r2,r2,128
  803030:	10bfe004 	addi	r2,r2,-128
  803034:	1000061e 	bne	r2,zero,803050 <logic+0x2d8c>
  803038:	e0bffd17 	ldw	r2,-12(fp)
  80303c:	10802a03 	ldbu	r2,168(r2)
  803040:	10803fcc 	andi	r2,r2,255
  803044:	1080201c 	xori	r2,r2,128
  803048:	10bfe004 	addi	r2,r2,-128
  80304c:	10002c26 	beq	r2,zero,803100 <logic+0x2e3c>
  803050:	e0bffd17 	ldw	r2,-12(fp)
  803054:	10804d83 	ldbu	r2,310(r2)
  803058:	10803fcc 	andi	r2,r2,255
  80305c:	1080201c 	xori	r2,r2,128
  803060:	10bfe004 	addi	r2,r2,-128
  803064:	1000061e 	bne	r2,zero,803080 <logic+0x2dbc>
  803068:	e0bffd17 	ldw	r2,-12(fp)
  80306c:	10802b43 	ldbu	r2,173(r2)
  803070:	10803fcc 	andi	r2,r2,255
  803074:	1080201c 	xori	r2,r2,128
  803078:	10bfe004 	addi	r2,r2,-128
  80307c:	10002026 	beq	r2,zero,803100 <logic+0x2e3c>
  803080:	e0bffd17 	ldw	r2,-12(fp)
  803084:	10802b83 	ldbu	r2,174(r2)
  803088:	10803fcc 	andi	r2,r2,255
  80308c:	1080201c 	xori	r2,r2,128
  803090:	10bfe004 	addi	r2,r2,-128
  803094:	1000061e 	bne	r2,zero,8030b0 <logic+0x2dec>
  803098:	e0bffd17 	ldw	r2,-12(fp)
  80309c:	10802c83 	ldbu	r2,178(r2)
  8030a0:	10803fcc 	andi	r2,r2,255
  8030a4:	1080201c 	xori	r2,r2,128
  8030a8:	10bfe004 	addi	r2,r2,-128
  8030ac:	10001426 	beq	r2,zero,803100 <logic+0x2e3c>
  8030b0:	e0bffd17 	ldw	r2,-12(fp)
  8030b4:	10802a03 	ldbu	r2,168(r2)
  8030b8:	10803fcc 	andi	r2,r2,255
  8030bc:	1080201c 	xori	r2,r2,128
  8030c0:	10bfe004 	addi	r2,r2,-128
  8030c4:	10000c1e 	bne	r2,zero,8030f8 <logic+0x2e34>
  8030c8:	e0bffd17 	ldw	r2,-12(fp)
  8030cc:	10802b43 	ldbu	r2,173(r2)
  8030d0:	10803fcc 	andi	r2,r2,255
  8030d4:	1080201c 	xori	r2,r2,128
  8030d8:	10bfe004 	addi	r2,r2,-128
  8030dc:	1000061e 	bne	r2,zero,8030f8 <logic+0x2e34>
  8030e0:	e0bffd17 	ldw	r2,-12(fp)
  8030e4:	10802c83 	ldbu	r2,178(r2)
  8030e8:	10803fcc 	andi	r2,r2,255
  8030ec:	1080201c 	xori	r2,r2,128
  8030f0:	10bfe004 	addi	r2,r2,-128
  8030f4:	10000226 	beq	r2,zero,803100 <logic+0x2e3c>
  8030f8:	00800044 	movi	r2,1
  8030fc:	00000106 	br	803104 <logic+0x2e40>
  803100:	0005883a 	mov	r2,zero
  803104:	1007883a 	mov	r3,r2
  803108:	e0bffd17 	ldw	r2,-12(fp)
  80310c:	10c02bc5 	stb	r3,175(r2)
  d->_cg141 = d->_PaceMaker_local__Atrig6;
  803110:	e0bffd17 	ldw	r2,-12(fp)
  803114:	10c00c03 	ldbu	r3,48(r2)
  803118:	e0bffd17 	ldw	r2,-12(fp)
  80311c:	10c04045 	stb	r3,257(r2)
  d->_g140 = d->_g135 && !d->_cg141;
  803120:	e0bffd17 	ldw	r2,-12(fp)
  803124:	10802bc3 	ldbu	r2,175(r2)
  803128:	10803fcc 	andi	r2,r2,255
  80312c:	1080201c 	xori	r2,r2,128
  803130:	10bfe004 	addi	r2,r2,-128
  803134:	10000826 	beq	r2,zero,803158 <logic+0x2e94>
  803138:	e0bffd17 	ldw	r2,-12(fp)
  80313c:	10804043 	ldbu	r2,257(r2)
  803140:	10803fcc 	andi	r2,r2,255
  803144:	1080201c 	xori	r2,r2,128
  803148:	10bfe004 	addi	r2,r2,-128
  80314c:	1000021e 	bne	r2,zero,803158 <logic+0x2e94>
  803150:	00800044 	movi	r2,1
  803154:	00000106 	br	80315c <logic+0x2e98>
  803158:	0005883a 	mov	r2,zero
  80315c:	1007883a 	mov	r3,r2
  803160:	e0bffd17 	ldw	r2,-12(fp)
  803164:	10c02d05 	stb	r3,180(r2)
  d->_cg142 = d->_PaceMaker_local__Atrig7;
  803168:	e0bffd17 	ldw	r2,-12(fp)
  80316c:	10c00c43 	ldbu	r3,49(r2)
  803170:	e0bffd17 	ldw	r2,-12(fp)
  803174:	10c03fc5 	stb	r3,255(r2)
  d->_g123 = d->_g140 && !d->_cg142;
  803178:	e0bffd17 	ldw	r2,-12(fp)
  80317c:	10802d03 	ldbu	r2,180(r2)
  803180:	10803fcc 	andi	r2,r2,255
  803184:	1080201c 	xori	r2,r2,128
  803188:	10bfe004 	addi	r2,r2,-128
  80318c:	10000826 	beq	r2,zero,8031b0 <logic+0x2eec>
  803190:	e0bffd17 	ldw	r2,-12(fp)
  803194:	10803fc3 	ldbu	r2,255(r2)
  803198:	10803fcc 	andi	r2,r2,255
  80319c:	1080201c 	xori	r2,r2,128
  8031a0:	10bfe004 	addi	r2,r2,-128
  8031a4:	1000021e 	bne	r2,zero,8031b0 <logic+0x2eec>
  8031a8:	00800044 	movi	r2,1
  8031ac:	00000106 	br	8031b4 <logic+0x2ef0>
  8031b0:	0005883a 	mov	r2,zero
  8031b4:	1007883a 	mov	r3,r2
  8031b8:	e0bffd17 	ldw	r2,-12(fp)
  8031bc:	10c02a05 	stb	r3,168(r2)
  if (d->_g123) {
  8031c0:	e0bffd17 	ldw	r2,-12(fp)
  8031c4:	10802a03 	ldbu	r2,168(r2)
  8031c8:	10803fcc 	andi	r2,r2,255
  8031cc:	1080201c 	xori	r2,r2,128
  8031d0:	10bfe004 	addi	r2,r2,-128
  8031d4:	10000626 	beq	r2,zero,8031f0 <logic+0x2f2c>
    d->AP |= 1;
  8031d8:	e0bffd17 	ldw	r2,-12(fp)
  8031dc:	10800483 	ldbu	r2,18(r2)
  8031e0:	10800054 	ori	r2,r2,1
  8031e4:	1007883a 	mov	r3,r2
  8031e8:	e0bffd17 	ldw	r2,-12(fp)
  8031ec:	10c00485 	stb	r3,18(r2)
  }
  d->_g131_e2 = d->_pg123_e1;
  8031f0:	e0bffd17 	ldw	r2,-12(fp)
  8031f4:	10c05683 	ldbu	r3,346(r2)
  8031f8:	e0bffd17 	ldw	r2,-12(fp)
  8031fc:	10c04d85 	stb	r3,310(r2)
  d->_cg65 = (d->AS || d->AP) && !d->ignore_AEvent;
  803200:	e0bffd17 	ldw	r2,-12(fp)
  803204:	10800403 	ldbu	r2,16(r2)
  803208:	10803fcc 	andi	r2,r2,255
  80320c:	1080201c 	xori	r2,r2,128
  803210:	10bfe004 	addi	r2,r2,-128
  803214:	1000061e 	bne	r2,zero,803230 <logic+0x2f6c>
  803218:	e0bffd17 	ldw	r2,-12(fp)
  80321c:	10800483 	ldbu	r2,18(r2)
  803220:	10803fcc 	andi	r2,r2,255
  803224:	1080201c 	xori	r2,r2,128
  803228:	10bfe004 	addi	r2,r2,-128
  80322c:	10000826 	beq	r2,zero,803250 <logic+0x2f8c>
  803230:	e0bffd17 	ldw	r2,-12(fp)
  803234:	10800503 	ldbu	r2,20(r2)
  803238:	10803fcc 	andi	r2,r2,255
  80323c:	1080201c 	xori	r2,r2,128
  803240:	10bfe004 	addi	r2,r2,-128
  803244:	1000021e 	bne	r2,zero,803250 <logic+0x2f8c>
  803248:	00800044 	movi	r2,1
  80324c:	00000106 	br	803254 <logic+0x2f90>
  803250:	0005883a 	mov	r2,zero
  803254:	1007883a 	mov	r3,r2
  803258:	e0bffd17 	ldw	r2,-12(fp)
  80325c:	10c03a45 	stb	r3,233(r2)
  d->_g123_e1 = d->_GO || (d->_g96 && d->_cg104) || d->_g103 || d->_g110 || d->_g73_e1 || (d->_g131_e2 && !d->_cg65);
  803260:	e0bffd17 	ldw	r2,-12(fp)
  803264:	10803643 	ldbu	r2,217(r2)
  803268:	10803fcc 	andi	r2,r2,255
  80326c:	1080201c 	xori	r2,r2,128
  803270:	10bfe004 	addi	r2,r2,-128
  803274:	10002a1e 	bne	r2,zero,803320 <logic+0x305c>
  803278:	e0bffd17 	ldw	r2,-12(fp)
  80327c:	108024c3 	ldbu	r2,147(r2)
  803280:	10803fcc 	andi	r2,r2,255
  803284:	1080201c 	xori	r2,r2,128
  803288:	10bfe004 	addi	r2,r2,-128
  80328c:	10000626 	beq	r2,zero,8032a8 <logic+0x2fe4>
  803290:	e0bffd17 	ldw	r2,-12(fp)
  803294:	10803a03 	ldbu	r2,232(r2)
  803298:	10803fcc 	andi	r2,r2,255
  80329c:	1080201c 	xori	r2,r2,128
  8032a0:	10bfe004 	addi	r2,r2,-128
  8032a4:	10001e1e 	bne	r2,zero,803320 <logic+0x305c>
  8032a8:	e0bffd17 	ldw	r2,-12(fp)
  8032ac:	10802683 	ldbu	r2,154(r2)
  8032b0:	10803fcc 	andi	r2,r2,255
  8032b4:	1080201c 	xori	r2,r2,128
  8032b8:	10bfe004 	addi	r2,r2,-128
  8032bc:	1000181e 	bne	r2,zero,803320 <logic+0x305c>
  8032c0:	e0bffd17 	ldw	r2,-12(fp)
  8032c4:	10802803 	ldbu	r2,160(r2)
  8032c8:	10803fcc 	andi	r2,r2,255
  8032cc:	1080201c 	xori	r2,r2,128
  8032d0:	10bfe004 	addi	r2,r2,-128
  8032d4:	1000121e 	bne	r2,zero,803320 <logic+0x305c>
  8032d8:	e0bffd17 	ldw	r2,-12(fp)
  8032dc:	10804c43 	ldbu	r2,305(r2)
  8032e0:	10803fcc 	andi	r2,r2,255
  8032e4:	1080201c 	xori	r2,r2,128
  8032e8:	10bfe004 	addi	r2,r2,-128
  8032ec:	10000c1e 	bne	r2,zero,803320 <logic+0x305c>
  8032f0:	e0bffd17 	ldw	r2,-12(fp)
  8032f4:	10804d83 	ldbu	r2,310(r2)
  8032f8:	10803fcc 	andi	r2,r2,255
  8032fc:	1080201c 	xori	r2,r2,128
  803300:	10bfe004 	addi	r2,r2,-128
  803304:	10000826 	beq	r2,zero,803328 <logic+0x3064>
  803308:	e0bffd17 	ldw	r2,-12(fp)
  80330c:	10803a43 	ldbu	r2,233(r2)
  803310:	10803fcc 	andi	r2,r2,255
  803314:	1080201c 	xori	r2,r2,128
  803318:	10bfe004 	addi	r2,r2,-128
  80331c:	1000021e 	bne	r2,zero,803328 <logic+0x3064>
  803320:	00800044 	movi	r2,1
  803324:	00000106 	br	80332c <logic+0x3068>
  803328:	0005883a 	mov	r2,zero
  80332c:	1007883a 	mov	r3,r2
  803330:	e0bffd17 	ldw	r2,-12(fp)
  803334:	10c04d45 	stb	r3,309(r2)
  d->_g131 = d->_g131_e2 && d->_cg65;
  803338:	e0bffd17 	ldw	r2,-12(fp)
  80333c:	10804d83 	ldbu	r2,310(r2)
  803340:	10803fcc 	andi	r2,r2,255
  803344:	1080201c 	xori	r2,r2,128
  803348:	10bfe004 	addi	r2,r2,-128
  80334c:	10000826 	beq	r2,zero,803370 <logic+0x30ac>
  803350:	e0bffd17 	ldw	r2,-12(fp)
  803354:	10803a43 	ldbu	r2,233(r2)
  803358:	10803fcc 	andi	r2,r2,255
  80335c:	1080201c 	xori	r2,r2,128
  803360:	10bfe004 	addi	r2,r2,-128
  803364:	10000226 	beq	r2,zero,803370 <logic+0x30ac>
  803368:	00800044 	movi	r2,1
  80336c:	00000106 	br	803374 <logic+0x30b0>
  803370:	0005883a 	mov	r2,zero
  803374:	1007883a 	mov	r3,r2
  803378:	e0bffd17 	ldw	r2,-12(fp)
  80337c:	10c02b45 	stb	r3,173(r2)
  if (d->_g131) {
  803380:	e0bffd17 	ldw	r2,-12(fp)
  803384:	10802b43 	ldbu	r2,173(r2)
  803388:	10803fcc 	andi	r2,r2,255
  80338c:	1080201c 	xori	r2,r2,128
  803390:	10bfe004 	addi	r2,r2,-128
  803394:	10000b26 	beq	r2,zero,8033c4 <logic+0x3100>
    d->_PaceMaker_local_avi_clk = 0.0;
  803398:	e0bffd17 	ldw	r2,-12(fp)
  80339c:	10000d15 	stw	zero,52(r2)
  8033a0:	10000e15 	stw	zero,56(r2)
    d->_PaceMaker_local__Atrig2 = 0;
  8033a4:	e0bffd17 	ldw	r2,-12(fp)
  8033a8:	10000b05 	stb	zero,44(r2)
    d->_PaceMaker_local__Atrig3 = 0;
  8033ac:	e0bffd17 	ldw	r2,-12(fp)
  8033b0:	10000b45 	stb	zero,45(r2)
    d->_PaceMaker_local__Atrig4 = 0;
  8033b4:	e0bffd17 	ldw	r2,-12(fp)
  8033b8:	10000b85 	stb	zero,46(r2)
    d->_PaceMaker_local__Atrig5 = 0;
  8033bc:	e0bffd17 	ldw	r2,-12(fp)
  8033c0:	10000bc5 	stb	zero,47(r2)
  }
  d->_cg67 = d->_PaceMaker_local_avi_clk < AVI_VALUE - 1;
  8033c4:	e13ffd17 	ldw	r4,-12(fp)
  8033c8:	20800d17 	ldw	r2,52(r4)
  8033cc:	20c00e17 	ldw	r3,56(r4)
  8033d0:	04000044 	movi	r16,1
  8033d4:	000d883a 	mov	r6,zero
  8033d8:	01d01cf4 	movhi	r7,16499
  8033dc:	39ec0004 	addi	r7,r7,-20480
  8033e0:	1009883a 	mov	r4,r2
  8033e4:	180b883a 	mov	r5,r3
  8033e8:	0806f2c0 	call	806f2c <__ledf2>
  8033ec:	10000116 	blt	r2,zero,8033f4 <logic+0x3130>
  8033f0:	0021883a 	mov	r16,zero
  8033f4:	8007883a 	mov	r3,r16
  8033f8:	e0bffd17 	ldw	r2,-12(fp)
  8033fc:	10c03a85 	stb	r3,234(r2)
  d->_g136 = d->_g131 && d->_cg67;
  803400:	e0bffd17 	ldw	r2,-12(fp)
  803404:	10802b43 	ldbu	r2,173(r2)
  803408:	10803fcc 	andi	r2,r2,255
  80340c:	1080201c 	xori	r2,r2,128
  803410:	10bfe004 	addi	r2,r2,-128
  803414:	10000826 	beq	r2,zero,803438 <logic+0x3174>
  803418:	e0bffd17 	ldw	r2,-12(fp)
  80341c:	10803a83 	ldbu	r2,234(r2)
  803420:	10803fcc 	andi	r2,r2,255
  803424:	1080201c 	xori	r2,r2,128
  803428:	10bfe004 	addi	r2,r2,-128
  80342c:	10000226 	beq	r2,zero,803438 <logic+0x3174>
  803430:	00800044 	movi	r2,1
  803434:	00000106 	br	80343c <logic+0x3178>
  803438:	0005883a 	mov	r2,zero
  80343c:	1007883a 	mov	r3,r2
  803440:	e0bffd17 	ldw	r2,-12(fp)
  803444:	10c02c05 	stb	r3,176(r2)
  if (d->_g136) {
  803448:	e0bffd17 	ldw	r2,-12(fp)
  80344c:	10802c03 	ldbu	r2,176(r2)
  803450:	10803fcc 	andi	r2,r2,255
  803454:	1080201c 	xori	r2,r2,128
  803458:	10bfe004 	addi	r2,r2,-128
  80345c:	10002a26 	beq	r2,zero,803508 <logic+0x3244>
    d->sleepT = (d->sleepT < (AVI_VALUE - 1 - d->_PaceMaker_local_avi_clk)) ? d->sleepT : (AVI_VALUE - 1 - d->_PaceMaker_local_avi_clk);
  803460:	e0bffd17 	ldw	r2,-12(fp)
  803464:	14000217 	ldw	r16,8(r2)
  803468:	14400317 	ldw	r17,12(r2)
  80346c:	e13ffd17 	ldw	r4,-12(fp)
  803470:	20800d17 	ldw	r2,52(r4)
  803474:	20c00e17 	ldw	r3,56(r4)
  803478:	100d883a 	mov	r6,r2
  80347c:	180f883a 	mov	r7,r3
  803480:	0009883a 	mov	r4,zero
  803484:	01501cf4 	movhi	r5,16499
  803488:	296c0004 	addi	r5,r5,-20480
  80348c:	08070200 	call	807020 <__subdf3>
  803490:	1009883a 	mov	r4,r2
  803494:	180b883a 	mov	r5,r3
  803498:	2005883a 	mov	r2,r4
  80349c:	2807883a 	mov	r3,r5
  8034a0:	100d883a 	mov	r6,r2
  8034a4:	180f883a 	mov	r7,r3
  8034a8:	8009883a 	mov	r4,r16
  8034ac:	880b883a 	mov	r5,r17
  8034b0:	0806f2c0 	call	806f2c <__ledf2>
  8034b4:	1000040e 	bge	r2,zero,8034c8 <logic+0x3204>
  8034b8:	e13ffd17 	ldw	r4,-12(fp)
  8034bc:	20800217 	ldw	r2,8(r4)
  8034c0:	20c00317 	ldw	r3,12(r4)
  8034c4:	00000d06 	br	8034fc <logic+0x3238>
  8034c8:	e13ffd17 	ldw	r4,-12(fp)
  8034cc:	20800d17 	ldw	r2,52(r4)
  8034d0:	20c00e17 	ldw	r3,56(r4)
  8034d4:	100d883a 	mov	r6,r2
  8034d8:	180f883a 	mov	r7,r3
  8034dc:	0009883a 	mov	r4,zero
  8034e0:	01501cf4 	movhi	r5,16499
  8034e4:	296c0004 	addi	r5,r5,-20480
  8034e8:	08070200 	call	807020 <__subdf3>
  8034ec:	1009883a 	mov	r4,r2
  8034f0:	180b883a 	mov	r5,r3
  8034f4:	2005883a 	mov	r2,r4
  8034f8:	2807883a 	mov	r3,r5
  8034fc:	e13ffd17 	ldw	r4,-12(fp)
  803500:	20800215 	stw	r2,8(r4)
  803504:	20c00315 	stw	r3,12(r4)
  }
  d->_cg68 = d->_PaceMaker_local__Atrig2 || d->_PaceMaker_local__Atrig3 || d->_PaceMaker_local__Atrig4 || d->_PaceMaker_local__Atrig5;
  803508:	e0bffd17 	ldw	r2,-12(fp)
  80350c:	10800b03 	ldbu	r2,44(r2)
  803510:	10803fcc 	andi	r2,r2,255
  803514:	1080201c 	xori	r2,r2,128
  803518:	10bfe004 	addi	r2,r2,-128
  80351c:	1000121e 	bne	r2,zero,803568 <logic+0x32a4>
  803520:	e0bffd17 	ldw	r2,-12(fp)
  803524:	10800b43 	ldbu	r2,45(r2)
  803528:	10803fcc 	andi	r2,r2,255
  80352c:	1080201c 	xori	r2,r2,128
  803530:	10bfe004 	addi	r2,r2,-128
  803534:	10000c1e 	bne	r2,zero,803568 <logic+0x32a4>
  803538:	e0bffd17 	ldw	r2,-12(fp)
  80353c:	10800b83 	ldbu	r2,46(r2)
  803540:	10803fcc 	andi	r2,r2,255
  803544:	1080201c 	xori	r2,r2,128
  803548:	10bfe004 	addi	r2,r2,-128
  80354c:	1000061e 	bne	r2,zero,803568 <logic+0x32a4>
  803550:	e0bffd17 	ldw	r2,-12(fp)
  803554:	10800bc3 	ldbu	r2,47(r2)
  803558:	10803fcc 	andi	r2,r2,255
  80355c:	1080201c 	xori	r2,r2,128
  803560:	10bfe004 	addi	r2,r2,-128
  803564:	10000226 	beq	r2,zero,803570 <logic+0x32ac>
  803568:	00800044 	movi	r2,1
  80356c:	00000106 	br	803574 <logic+0x32b0>
  803570:	0005883a 	mov	r2,zero
  803574:	1007883a 	mov	r3,r2
  803578:	e0bffd17 	ldw	r2,-12(fp)
  80357c:	10c03ac5 	stb	r3,235(r2)
  d->_g136_e3 = (d->_g136 && !d->_cg68) || (d->_g76 && !d->_cg72);
  803580:	e0bffd17 	ldw	r2,-12(fp)
  803584:	10802c03 	ldbu	r2,176(r2)
  803588:	10803fcc 	andi	r2,r2,255
  80358c:	1080201c 	xori	r2,r2,128
  803590:	10bfe004 	addi	r2,r2,-128
  803594:	10000626 	beq	r2,zero,8035b0 <logic+0x32ec>
  803598:	e0bffd17 	ldw	r2,-12(fp)
  80359c:	10803ac3 	ldbu	r2,235(r2)
  8035a0:	10803fcc 	andi	r2,r2,255
  8035a4:	1080201c 	xori	r2,r2,128
  8035a8:	10bfe004 	addi	r2,r2,-128
  8035ac:	10000c26 	beq	r2,zero,8035e0 <logic+0x331c>
  8035b0:	e0bffd17 	ldw	r2,-12(fp)
  8035b4:	10802183 	ldbu	r2,134(r2)
  8035b8:	10803fcc 	andi	r2,r2,255
  8035bc:	1080201c 	xori	r2,r2,128
  8035c0:	10bfe004 	addi	r2,r2,-128
  8035c4:	10000826 	beq	r2,zero,8035e8 <logic+0x3324>
  8035c8:	e0bffd17 	ldw	r2,-12(fp)
  8035cc:	10803b03 	ldbu	r2,236(r2)
  8035d0:	10803fcc 	andi	r2,r2,255
  8035d4:	1080201c 	xori	r2,r2,128
  8035d8:	10bfe004 	addi	r2,r2,-128
  8035dc:	1000021e 	bne	r2,zero,8035e8 <logic+0x3324>
  8035e0:	00800044 	movi	r2,1
  8035e4:	00000106 	br	8035ec <logic+0x3328>
  8035e8:	0005883a 	mov	r2,zero
  8035ec:	1007883a 	mov	r3,r2
  8035f0:	e0bffd17 	ldw	r2,-12(fp)
  8035f4:	10c04dc5 	stb	r3,311(r2)
  d->_g110 = d->_g131 && !d->_cg67;
  8035f8:	e0bffd17 	ldw	r2,-12(fp)
  8035fc:	10802b43 	ldbu	r2,173(r2)
  803600:	10803fcc 	andi	r2,r2,255
  803604:	1080201c 	xori	r2,r2,128
  803608:	10bfe004 	addi	r2,r2,-128
  80360c:	10000826 	beq	r2,zero,803630 <logic+0x336c>
  803610:	e0bffd17 	ldw	r2,-12(fp)
  803614:	10803a83 	ldbu	r2,234(r2)
  803618:	10803fcc 	andi	r2,r2,255
  80361c:	1080201c 	xori	r2,r2,128
  803620:	10bfe004 	addi	r2,r2,-128
  803624:	1000021e 	bne	r2,zero,803630 <logic+0x336c>
  803628:	00800044 	movi	r2,1
  80362c:	00000106 	br	803634 <logic+0x3370>
  803630:	0005883a 	mov	r2,zero
  803634:	1007883a 	mov	r3,r2
  803638:	e0bffd17 	ldw	r2,-12(fp)
  80363c:	10c02805 	stb	r3,160(r2)
  d->_cg77 = d->_PaceMaker_local__Atrig2 || d->_PaceMaker_local__Atrig3 || d->_PaceMaker_local__Atrig4 || d->_PaceMaker_local__Atrig5;
  803640:	e0bffd17 	ldw	r2,-12(fp)
  803644:	10800b03 	ldbu	r2,44(r2)
  803648:	10803fcc 	andi	r2,r2,255
  80364c:	1080201c 	xori	r2,r2,128
  803650:	10bfe004 	addi	r2,r2,-128
  803654:	1000121e 	bne	r2,zero,8036a0 <logic+0x33dc>
  803658:	e0bffd17 	ldw	r2,-12(fp)
  80365c:	10800b43 	ldbu	r2,45(r2)
  803660:	10803fcc 	andi	r2,r2,255
  803664:	1080201c 	xori	r2,r2,128
  803668:	10bfe004 	addi	r2,r2,-128
  80366c:	10000c1e 	bne	r2,zero,8036a0 <logic+0x33dc>
  803670:	e0bffd17 	ldw	r2,-12(fp)
  803674:	10800b83 	ldbu	r2,46(r2)
  803678:	10803fcc 	andi	r2,r2,255
  80367c:	1080201c 	xori	r2,r2,128
  803680:	10bfe004 	addi	r2,r2,-128
  803684:	1000061e 	bne	r2,zero,8036a0 <logic+0x33dc>
  803688:	e0bffd17 	ldw	r2,-12(fp)
  80368c:	10800bc3 	ldbu	r2,47(r2)
  803690:	10803fcc 	andi	r2,r2,255
  803694:	1080201c 	xori	r2,r2,128
  803698:	10bfe004 	addi	r2,r2,-128
  80369c:	10000226 	beq	r2,zero,8036a8 <logic+0x33e4>
  8036a0:	00800044 	movi	r2,1
  8036a4:	00000106 	br	8036ac <logic+0x33e8>
  8036a8:	0005883a 	mov	r2,zero
  8036ac:	1007883a 	mov	r3,r2
  8036b0:	e0bffd17 	ldw	r2,-12(fp)
  8036b4:	10c03bc5 	stb	r3,239(r2)
  d->_g111 = (d->_g71 && !d->_cg74) || (d->_g110 && !d->_cg77);
  8036b8:	e0bffd17 	ldw	r2,-12(fp)
  8036bc:	10802083 	ldbu	r2,130(r2)
  8036c0:	10803fcc 	andi	r2,r2,255
  8036c4:	1080201c 	xori	r2,r2,128
  8036c8:	10bfe004 	addi	r2,r2,-128
  8036cc:	10000626 	beq	r2,zero,8036e8 <logic+0x3424>
  8036d0:	e0bffd17 	ldw	r2,-12(fp)
  8036d4:	10803b83 	ldbu	r2,238(r2)
  8036d8:	10803fcc 	andi	r2,r2,255
  8036dc:	1080201c 	xori	r2,r2,128
  8036e0:	10bfe004 	addi	r2,r2,-128
  8036e4:	10000c26 	beq	r2,zero,803718 <logic+0x3454>
  8036e8:	e0bffd17 	ldw	r2,-12(fp)
  8036ec:	10802803 	ldbu	r2,160(r2)
  8036f0:	10803fcc 	andi	r2,r2,255
  8036f4:	1080201c 	xori	r2,r2,128
  8036f8:	10bfe004 	addi	r2,r2,-128
  8036fc:	10000826 	beq	r2,zero,803720 <logic+0x345c>
  803700:	e0bffd17 	ldw	r2,-12(fp)
  803704:	10803bc3 	ldbu	r2,239(r2)
  803708:	10803fcc 	andi	r2,r2,255
  80370c:	1080201c 	xori	r2,r2,128
  803710:	10bfe004 	addi	r2,r2,-128
  803714:	1000021e 	bne	r2,zero,803720 <logic+0x345c>
  803718:	00800044 	movi	r2,1
  80371c:	00000106 	br	803724 <logic+0x3460>
  803720:	0005883a 	mov	r2,zero
  803724:	1007883a 	mov	r3,r2
  803728:	e0bffd17 	ldw	r2,-12(fp)
  80372c:	10c02845 	stb	r3,161(r2)
  d->_cg78 = d->_PaceMaker_local_avi_clk < AVI_VALUE - 1;
  803730:	e13ffd17 	ldw	r4,-12(fp)
  803734:	20800d17 	ldw	r2,52(r4)
  803738:	20c00e17 	ldw	r3,56(r4)
  80373c:	04000044 	movi	r16,1
  803740:	000d883a 	mov	r6,zero
  803744:	01d01cf4 	movhi	r7,16499
  803748:	39ec0004 	addi	r7,r7,-20480
  80374c:	1009883a 	mov	r4,r2
  803750:	180b883a 	mov	r5,r3
  803754:	0806f2c0 	call	806f2c <__ledf2>
  803758:	10000116 	blt	r2,zero,803760 <logic+0x349c>
  80375c:	0021883a 	mov	r16,zero
  803760:	8007883a 	mov	r3,r16
  803764:	e0bffd17 	ldw	r2,-12(fp)
  803768:	10c03c05 	stb	r3,240(r2)
  d->_g106 = d->_g131 && d->_cg78;
  80376c:	e0bffd17 	ldw	r2,-12(fp)
  803770:	10802b43 	ldbu	r2,173(r2)
  803774:	10803fcc 	andi	r2,r2,255
  803778:	1080201c 	xori	r2,r2,128
  80377c:	10bfe004 	addi	r2,r2,-128
  803780:	10000826 	beq	r2,zero,8037a4 <logic+0x34e0>
  803784:	e0bffd17 	ldw	r2,-12(fp)
  803788:	10803c03 	ldbu	r2,240(r2)
  80378c:	10803fcc 	andi	r2,r2,255
  803790:	1080201c 	xori	r2,r2,128
  803794:	10bfe004 	addi	r2,r2,-128
  803798:	10000226 	beq	r2,zero,8037a4 <logic+0x34e0>
  80379c:	00800044 	movi	r2,1
  8037a0:	00000106 	br	8037a8 <logic+0x34e4>
  8037a4:	0005883a 	mov	r2,zero
  8037a8:	1007883a 	mov	r3,r2
  8037ac:	e0bffd17 	ldw	r2,-12(fp)
  8037b0:	10c02745 	stb	r3,157(r2)
  if (d->_g106) {
  8037b4:	e0bffd17 	ldw	r2,-12(fp)
  8037b8:	10802743 	ldbu	r2,157(r2)
  8037bc:	10803fcc 	andi	r2,r2,255
  8037c0:	1080201c 	xori	r2,r2,128
  8037c4:	10bfe004 	addi	r2,r2,-128
  8037c8:	10002a26 	beq	r2,zero,803874 <logic+0x35b0>
    d->sleepT = (d->sleepT < (AVI_VALUE - 1 - d->_PaceMaker_local_avi_clk)) ? d->sleepT : (AVI_VALUE - 1 - d->_PaceMaker_local_avi_clk);
  8037cc:	e0bffd17 	ldw	r2,-12(fp)
  8037d0:	14000217 	ldw	r16,8(r2)
  8037d4:	14400317 	ldw	r17,12(r2)
  8037d8:	e13ffd17 	ldw	r4,-12(fp)
  8037dc:	20800d17 	ldw	r2,52(r4)
  8037e0:	20c00e17 	ldw	r3,56(r4)
  8037e4:	100d883a 	mov	r6,r2
  8037e8:	180f883a 	mov	r7,r3
  8037ec:	0009883a 	mov	r4,zero
  8037f0:	01501cf4 	movhi	r5,16499
  8037f4:	296c0004 	addi	r5,r5,-20480
  8037f8:	08070200 	call	807020 <__subdf3>
  8037fc:	1009883a 	mov	r4,r2
  803800:	180b883a 	mov	r5,r3
  803804:	2005883a 	mov	r2,r4
  803808:	2807883a 	mov	r3,r5
  80380c:	100d883a 	mov	r6,r2
  803810:	180f883a 	mov	r7,r3
  803814:	8009883a 	mov	r4,r16
  803818:	880b883a 	mov	r5,r17
  80381c:	0806f2c0 	call	806f2c <__ledf2>
  803820:	1000040e 	bge	r2,zero,803834 <logic+0x3570>
  803824:	e13ffd17 	ldw	r4,-12(fp)
  803828:	20800217 	ldw	r2,8(r4)
  80382c:	20c00317 	ldw	r3,12(r4)
  803830:	00000d06 	br	803868 <logic+0x35a4>
  803834:	e13ffd17 	ldw	r4,-12(fp)
  803838:	20800d17 	ldw	r2,52(r4)
  80383c:	20c00e17 	ldw	r3,56(r4)
  803840:	100d883a 	mov	r6,r2
  803844:	180f883a 	mov	r7,r3
  803848:	0009883a 	mov	r4,zero
  80384c:	01501cf4 	movhi	r5,16499
  803850:	296c0004 	addi	r5,r5,-20480
  803854:	08070200 	call	807020 <__subdf3>
  803858:	1009883a 	mov	r4,r2
  80385c:	180b883a 	mov	r5,r3
  803860:	2005883a 	mov	r2,r4
  803864:	2807883a 	mov	r3,r5
  803868:	e13ffd17 	ldw	r4,-12(fp)
  80386c:	20800215 	stw	r2,8(r4)
  803870:	20c00315 	stw	r3,12(r4)
  }
  d->_cg79 = d->_PaceMaker_local__Atrig2 || d->_PaceMaker_local__Atrig3 || d->_PaceMaker_local__Atrig4 || d->_PaceMaker_local__Atrig5;
  803874:	e0bffd17 	ldw	r2,-12(fp)
  803878:	10800b03 	ldbu	r2,44(r2)
  80387c:	10803fcc 	andi	r2,r2,255
  803880:	1080201c 	xori	r2,r2,128
  803884:	10bfe004 	addi	r2,r2,-128
  803888:	1000121e 	bne	r2,zero,8038d4 <logic+0x3610>
  80388c:	e0bffd17 	ldw	r2,-12(fp)
  803890:	10800b43 	ldbu	r2,45(r2)
  803894:	10803fcc 	andi	r2,r2,255
  803898:	1080201c 	xori	r2,r2,128
  80389c:	10bfe004 	addi	r2,r2,-128
  8038a0:	10000c1e 	bne	r2,zero,8038d4 <logic+0x3610>
  8038a4:	e0bffd17 	ldw	r2,-12(fp)
  8038a8:	10800b83 	ldbu	r2,46(r2)
  8038ac:	10803fcc 	andi	r2,r2,255
  8038b0:	1080201c 	xori	r2,r2,128
  8038b4:	10bfe004 	addi	r2,r2,-128
  8038b8:	1000061e 	bne	r2,zero,8038d4 <logic+0x3610>
  8038bc:	e0bffd17 	ldw	r2,-12(fp)
  8038c0:	10800bc3 	ldbu	r2,47(r2)
  8038c4:	10803fcc 	andi	r2,r2,255
  8038c8:	1080201c 	xori	r2,r2,128
  8038cc:	10bfe004 	addi	r2,r2,-128
  8038d0:	10000226 	beq	r2,zero,8038dc <logic+0x3618>
  8038d4:	00800044 	movi	r2,1
  8038d8:	00000106 	br	8038e0 <logic+0x361c>
  8038dc:	0005883a 	mov	r2,zero
  8038e0:	1007883a 	mov	r3,r2
  8038e4:	e0bffd17 	ldw	r2,-12(fp)
  8038e8:	10c03c45 	stb	r3,241(r2)
  d->_g104 = (d->_g106 && !d->_cg79) || (d->_g87 && !d->_cg83);
  8038ec:	e0bffd17 	ldw	r2,-12(fp)
  8038f0:	10802743 	ldbu	r2,157(r2)
  8038f4:	10803fcc 	andi	r2,r2,255
  8038f8:	1080201c 	xori	r2,r2,128
  8038fc:	10bfe004 	addi	r2,r2,-128
  803900:	10000626 	beq	r2,zero,80391c <logic+0x3658>
  803904:	e0bffd17 	ldw	r2,-12(fp)
  803908:	10803c43 	ldbu	r2,241(r2)
  80390c:	10803fcc 	andi	r2,r2,255
  803910:	1080201c 	xori	r2,r2,128
  803914:	10bfe004 	addi	r2,r2,-128
  803918:	10000c26 	beq	r2,zero,80394c <logic+0x3688>
  80391c:	e0bffd17 	ldw	r2,-12(fp)
  803920:	10802383 	ldbu	r2,142(r2)
  803924:	10803fcc 	andi	r2,r2,255
  803928:	1080201c 	xori	r2,r2,128
  80392c:	10bfe004 	addi	r2,r2,-128
  803930:	10000826 	beq	r2,zero,803954 <logic+0x3690>
  803934:	e0bffd17 	ldw	r2,-12(fp)
  803938:	10803c83 	ldbu	r2,242(r2)
  80393c:	10803fcc 	andi	r2,r2,255
  803940:	1080201c 	xori	r2,r2,128
  803944:	10bfe004 	addi	r2,r2,-128
  803948:	1000021e 	bne	r2,zero,803954 <logic+0x3690>
  80394c:	00800044 	movi	r2,1
  803950:	00000106 	br	803958 <logic+0x3694>
  803954:	0005883a 	mov	r2,zero
  803958:	1007883a 	mov	r3,r2
  80395c:	e0bffd17 	ldw	r2,-12(fp)
  803960:	10c026c5 	stb	r3,155(r2)
  d->_g65 = d->_g131 && !d->_cg78;
  803964:	e0bffd17 	ldw	r2,-12(fp)
  803968:	10802b43 	ldbu	r2,173(r2)
  80396c:	10803fcc 	andi	r2,r2,255
  803970:	1080201c 	xori	r2,r2,128
  803974:	10bfe004 	addi	r2,r2,-128
  803978:	10000826 	beq	r2,zero,80399c <logic+0x36d8>
  80397c:	e0bffd17 	ldw	r2,-12(fp)
  803980:	10803c03 	ldbu	r2,240(r2)
  803984:	10803fcc 	andi	r2,r2,255
  803988:	1080201c 	xori	r2,r2,128
  80398c:	10bfe004 	addi	r2,r2,-128
  803990:	1000021e 	bne	r2,zero,80399c <logic+0x36d8>
  803994:	00800044 	movi	r2,1
  803998:	00000106 	br	8039a0 <logic+0x36dc>
  80399c:	0005883a 	mov	r2,zero
  8039a0:	1007883a 	mov	r3,r2
  8039a4:	e0bffd17 	ldw	r2,-12(fp)
  8039a8:	10c01f85 	stb	r3,126(r2)
  d->_cg88 = d->_PaceMaker_local__Atrig2 || d->_PaceMaker_local__Atrig3 || d->_PaceMaker_local__Atrig4 || d->_PaceMaker_local__Atrig5;
  8039ac:	e0bffd17 	ldw	r2,-12(fp)
  8039b0:	10800b03 	ldbu	r2,44(r2)
  8039b4:	10803fcc 	andi	r2,r2,255
  8039b8:	1080201c 	xori	r2,r2,128
  8039bc:	10bfe004 	addi	r2,r2,-128
  8039c0:	1000121e 	bne	r2,zero,803a0c <logic+0x3748>
  8039c4:	e0bffd17 	ldw	r2,-12(fp)
  8039c8:	10800b43 	ldbu	r2,45(r2)
  8039cc:	10803fcc 	andi	r2,r2,255
  8039d0:	1080201c 	xori	r2,r2,128
  8039d4:	10bfe004 	addi	r2,r2,-128
  8039d8:	10000c1e 	bne	r2,zero,803a0c <logic+0x3748>
  8039dc:	e0bffd17 	ldw	r2,-12(fp)
  8039e0:	10800b83 	ldbu	r2,46(r2)
  8039e4:	10803fcc 	andi	r2,r2,255
  8039e8:	1080201c 	xori	r2,r2,128
  8039ec:	10bfe004 	addi	r2,r2,-128
  8039f0:	1000061e 	bne	r2,zero,803a0c <logic+0x3748>
  8039f4:	e0bffd17 	ldw	r2,-12(fp)
  8039f8:	10800bc3 	ldbu	r2,47(r2)
  8039fc:	10803fcc 	andi	r2,r2,255
  803a00:	1080201c 	xori	r2,r2,128
  803a04:	10bfe004 	addi	r2,r2,-128
  803a08:	10000226 	beq	r2,zero,803a14 <logic+0x3750>
  803a0c:	00800044 	movi	r2,1
  803a10:	00000106 	br	803a18 <logic+0x3754>
  803a14:	0005883a 	mov	r2,zero
  803a18:	1007883a 	mov	r3,r2
  803a1c:	e0bffd17 	ldw	r2,-12(fp)
  803a20:	10c03d45 	stb	r3,245(r2)
  d->_g68 = (d->_g82 && !d->_cg85) || (d->_g65 && !d->_cg88);
  803a24:	e0bffd17 	ldw	r2,-12(fp)
  803a28:	10802283 	ldbu	r2,138(r2)
  803a2c:	10803fcc 	andi	r2,r2,255
  803a30:	1080201c 	xori	r2,r2,128
  803a34:	10bfe004 	addi	r2,r2,-128
  803a38:	10000626 	beq	r2,zero,803a54 <logic+0x3790>
  803a3c:	e0bffd17 	ldw	r2,-12(fp)
  803a40:	10803d03 	ldbu	r2,244(r2)
  803a44:	10803fcc 	andi	r2,r2,255
  803a48:	1080201c 	xori	r2,r2,128
  803a4c:	10bfe004 	addi	r2,r2,-128
  803a50:	10000c26 	beq	r2,zero,803a84 <logic+0x37c0>
  803a54:	e0bffd17 	ldw	r2,-12(fp)
  803a58:	10801f83 	ldbu	r2,126(r2)
  803a5c:	10803fcc 	andi	r2,r2,255
  803a60:	1080201c 	xori	r2,r2,128
  803a64:	10bfe004 	addi	r2,r2,-128
  803a68:	10000826 	beq	r2,zero,803a8c <logic+0x37c8>
  803a6c:	e0bffd17 	ldw	r2,-12(fp)
  803a70:	10803d43 	ldbu	r2,245(r2)
  803a74:	10803fcc 	andi	r2,r2,255
  803a78:	1080201c 	xori	r2,r2,128
  803a7c:	10bfe004 	addi	r2,r2,-128
  803a80:	1000021e 	bne	r2,zero,803a8c <logic+0x37c8>
  803a84:	00800044 	movi	r2,1
  803a88:	00000106 	br	803a90 <logic+0x37cc>
  803a8c:	0005883a 	mov	r2,zero
  803a90:	1007883a 	mov	r3,r2
  803a94:	e0bffd17 	ldw	r2,-12(fp)
  803a98:	10c02005 	stb	r3,128(r2)
  d->_cg89 = d->_PaceMaker_local__Atrig2 || d->_PaceMaker_local__Atrig3 || d->_PaceMaker_local__Atrig4 || d->_PaceMaker_local__Atrig5;
  803a9c:	e0bffd17 	ldw	r2,-12(fp)
  803aa0:	10800b03 	ldbu	r2,44(r2)
  803aa4:	10803fcc 	andi	r2,r2,255
  803aa8:	1080201c 	xori	r2,r2,128
  803aac:	10bfe004 	addi	r2,r2,-128
  803ab0:	1000121e 	bne	r2,zero,803afc <logic+0x3838>
  803ab4:	e0bffd17 	ldw	r2,-12(fp)
  803ab8:	10800b43 	ldbu	r2,45(r2)
  803abc:	10803fcc 	andi	r2,r2,255
  803ac0:	1080201c 	xori	r2,r2,128
  803ac4:	10bfe004 	addi	r2,r2,-128
  803ac8:	10000c1e 	bne	r2,zero,803afc <logic+0x3838>
  803acc:	e0bffd17 	ldw	r2,-12(fp)
  803ad0:	10800b83 	ldbu	r2,46(r2)
  803ad4:	10803fcc 	andi	r2,r2,255
  803ad8:	1080201c 	xori	r2,r2,128
  803adc:	10bfe004 	addi	r2,r2,-128
  803ae0:	1000061e 	bne	r2,zero,803afc <logic+0x3838>
  803ae4:	e0bffd17 	ldw	r2,-12(fp)
  803ae8:	10800bc3 	ldbu	r2,47(r2)
  803aec:	10803fcc 	andi	r2,r2,255
  803af0:	1080201c 	xori	r2,r2,128
  803af4:	10bfe004 	addi	r2,r2,-128
  803af8:	10000226 	beq	r2,zero,803b04 <logic+0x3840>
  803afc:	00800044 	movi	r2,1
  803b00:	00000106 	br	803b08 <logic+0x3844>
  803b04:	0005883a 	mov	r2,zero
  803b08:	1007883a 	mov	r3,r2
  803b0c:	e0bffd17 	ldw	r2,-12(fp)
  803b10:	10c03d85 	stb	r3,246(r2)
  d->_g72 = (d->_g131 && !d->_cg89) || (d->_g91 && !d->_cg91);
  803b14:	e0bffd17 	ldw	r2,-12(fp)
  803b18:	10802b43 	ldbu	r2,173(r2)
  803b1c:	10803fcc 	andi	r2,r2,255
  803b20:	1080201c 	xori	r2,r2,128
  803b24:	10bfe004 	addi	r2,r2,-128
  803b28:	10000626 	beq	r2,zero,803b44 <logic+0x3880>
  803b2c:	e0bffd17 	ldw	r2,-12(fp)
  803b30:	10803d83 	ldbu	r2,246(r2)
  803b34:	10803fcc 	andi	r2,r2,255
  803b38:	1080201c 	xori	r2,r2,128
  803b3c:	10bfe004 	addi	r2,r2,-128
  803b40:	10000c26 	beq	r2,zero,803b74 <logic+0x38b0>
  803b44:	e0bffd17 	ldw	r2,-12(fp)
  803b48:	10802403 	ldbu	r2,144(r2)
  803b4c:	10803fcc 	andi	r2,r2,255
  803b50:	1080201c 	xori	r2,r2,128
  803b54:	10bfe004 	addi	r2,r2,-128
  803b58:	10000826 	beq	r2,zero,803b7c <logic+0x38b8>
  803b5c:	e0bffd17 	ldw	r2,-12(fp)
  803b60:	10803dc3 	ldbu	r2,247(r2)
  803b64:	10803fcc 	andi	r2,r2,255
  803b68:	1080201c 	xori	r2,r2,128
  803b6c:	10bfe004 	addi	r2,r2,-128
  803b70:	1000021e 	bne	r2,zero,803b7c <logic+0x38b8>
  803b74:	00800044 	movi	r2,1
  803b78:	00000106 	br	803b80 <logic+0x38bc>
  803b7c:	0005883a 	mov	r2,zero
  803b80:	1007883a 	mov	r3,r2
  803b84:	e0bffd17 	ldw	r2,-12(fp)
  803b88:	10c020c5 	stb	r3,131(r2)
  d->_g77 = d->_g131 || (d->_g100 && !d->_cg102);
  803b8c:	e0bffd17 	ldw	r2,-12(fp)
  803b90:	10802b43 	ldbu	r2,173(r2)
  803b94:	10803fcc 	andi	r2,r2,255
  803b98:	1080201c 	xori	r2,r2,128
  803b9c:	10bfe004 	addi	r2,r2,-128
  803ba0:	10000c1e 	bne	r2,zero,803bd4 <logic+0x3910>
  803ba4:	e0bffd17 	ldw	r2,-12(fp)
  803ba8:	108025c3 	ldbu	r2,151(r2)
  803bac:	10803fcc 	andi	r2,r2,255
  803bb0:	1080201c 	xori	r2,r2,128
  803bb4:	10bfe004 	addi	r2,r2,-128
  803bb8:	10000826 	beq	r2,zero,803bdc <logic+0x3918>
  803bbc:	e0bffd17 	ldw	r2,-12(fp)
  803bc0:	10803e03 	ldbu	r2,248(r2)
  803bc4:	10803fcc 	andi	r2,r2,255
  803bc8:	1080201c 	xori	r2,r2,128
  803bcc:	10bfe004 	addi	r2,r2,-128
  803bd0:	1000021e 	bne	r2,zero,803bdc <logic+0x3918>
  803bd4:	00800044 	movi	r2,1
  803bd8:	00000106 	br	803be0 <logic+0x391c>
  803bdc:	0005883a 	mov	r2,zero
  803be0:	1007883a 	mov	r3,r2
  803be4:	e0bffd17 	ldw	r2,-12(fp)
  803be8:	10c021c5 	stb	r3,135(r2)
  d->_g74 = (d->_g92_e3 && d->_cg107) || (d->_g109 && !d->_cg109);
  803bec:	e0bffd17 	ldw	r2,-12(fp)
  803bf0:	10804cc3 	ldbu	r2,307(r2)
  803bf4:	10803fcc 	andi	r2,r2,255
  803bf8:	1080201c 	xori	r2,r2,128
  803bfc:	10bfe004 	addi	r2,r2,-128
  803c00:	10000626 	beq	r2,zero,803c1c <logic+0x3958>
  803c04:	e0bffd17 	ldw	r2,-12(fp)
  803c08:	10803f43 	ldbu	r2,253(r2)
  803c0c:	10803fcc 	andi	r2,r2,255
  803c10:	1080201c 	xori	r2,r2,128
  803c14:	10bfe004 	addi	r2,r2,-128
  803c18:	10000c1e 	bne	r2,zero,803c4c <logic+0x3988>
  803c1c:	e0bffd17 	ldw	r2,-12(fp)
  803c20:	108027c3 	ldbu	r2,159(r2)
  803c24:	10803fcc 	andi	r2,r2,255
  803c28:	1080201c 	xori	r2,r2,128
  803c2c:	10bfe004 	addi	r2,r2,-128
  803c30:	10000826 	beq	r2,zero,803c54 <logic+0x3990>
  803c34:	e0bffd17 	ldw	r2,-12(fp)
  803c38:	10803f83 	ldbu	r2,254(r2)
  803c3c:	10803fcc 	andi	r2,r2,255
  803c40:	1080201c 	xori	r2,r2,128
  803c44:	10bfe004 	addi	r2,r2,-128
  803c48:	1000021e 	bne	r2,zero,803c54 <logic+0x3990>
  803c4c:	00800044 	movi	r2,1
  803c50:	00000106 	br	803c58 <logic+0x3994>
  803c54:	0005883a 	mov	r2,zero
  803c58:	1007883a 	mov	r3,r2
  803c5c:	e0bffd17 	ldw	r2,-12(fp)
  803c60:	10c02145 	stb	r3,133(r2)
  d->_g79 = d->_pg83;
  803c64:	e0bffd17 	ldw	r2,-12(fp)
  803c68:	10c056c3 	ldbu	r3,347(r2)
  803c6c:	e0bffd17 	ldw	r2,-12(fp)
  803c70:	10c02205 	stb	r3,136(r2)
  d->_cg115 = (d->VS || d->VP) && !d->ignore_VEvent;
  803c74:	e0bffd17 	ldw	r2,-12(fp)
  803c78:	10800443 	ldbu	r2,17(r2)
  803c7c:	10803fcc 	andi	r2,r2,255
  803c80:	1080201c 	xori	r2,r2,128
  803c84:	10bfe004 	addi	r2,r2,-128
  803c88:	1000061e 	bne	r2,zero,803ca4 <logic+0x39e0>
  803c8c:	e0bffd17 	ldw	r2,-12(fp)
  803c90:	108004c3 	ldbu	r2,19(r2)
  803c94:	10803fcc 	andi	r2,r2,255
  803c98:	1080201c 	xori	r2,r2,128
  803c9c:	10bfe004 	addi	r2,r2,-128
  803ca0:	10000826 	beq	r2,zero,803cc4 <logic+0x3a00>
  803ca4:	e0bffd17 	ldw	r2,-12(fp)
  803ca8:	10800543 	ldbu	r2,21(r2)
  803cac:	10803fcc 	andi	r2,r2,255
  803cb0:	1080201c 	xori	r2,r2,128
  803cb4:	10bfe004 	addi	r2,r2,-128
  803cb8:	1000021e 	bne	r2,zero,803cc4 <logic+0x3a00>
  803cbc:	00800044 	movi	r2,1
  803cc0:	00000106 	br	803cc8 <logic+0x3a04>
  803cc4:	0005883a 	mov	r2,zero
  803cc8:	1007883a 	mov	r3,r2
  803ccc:	e0bffd17 	ldw	r2,-12(fp)
  803cd0:	10c04005 	stb	r3,256(r2)
  d->_g83 = d->_GO || (d->_g140 && d->_cg142) || d->_g123 || (d->_g79 && !d->_cg115);
  803cd4:	e0bffd17 	ldw	r2,-12(fp)
  803cd8:	10803643 	ldbu	r2,217(r2)
  803cdc:	10803fcc 	andi	r2,r2,255
  803ce0:	1080201c 	xori	r2,r2,128
  803ce4:	10bfe004 	addi	r2,r2,-128
  803ce8:	10001e1e 	bne	r2,zero,803d64 <logic+0x3aa0>
  803cec:	e0bffd17 	ldw	r2,-12(fp)
  803cf0:	10802d03 	ldbu	r2,180(r2)
  803cf4:	10803fcc 	andi	r2,r2,255
  803cf8:	1080201c 	xori	r2,r2,128
  803cfc:	10bfe004 	addi	r2,r2,-128
  803d00:	10000626 	beq	r2,zero,803d1c <logic+0x3a58>
  803d04:	e0bffd17 	ldw	r2,-12(fp)
  803d08:	10803fc3 	ldbu	r2,255(r2)
  803d0c:	10803fcc 	andi	r2,r2,255
  803d10:	1080201c 	xori	r2,r2,128
  803d14:	10bfe004 	addi	r2,r2,-128
  803d18:	1000121e 	bne	r2,zero,803d64 <logic+0x3aa0>
  803d1c:	e0bffd17 	ldw	r2,-12(fp)
  803d20:	10802a03 	ldbu	r2,168(r2)
  803d24:	10803fcc 	andi	r2,r2,255
  803d28:	1080201c 	xori	r2,r2,128
  803d2c:	10bfe004 	addi	r2,r2,-128
  803d30:	10000c1e 	bne	r2,zero,803d64 <logic+0x3aa0>
  803d34:	e0bffd17 	ldw	r2,-12(fp)
  803d38:	10802203 	ldbu	r2,136(r2)
  803d3c:	10803fcc 	andi	r2,r2,255
  803d40:	1080201c 	xori	r2,r2,128
  803d44:	10bfe004 	addi	r2,r2,-128
  803d48:	10000826 	beq	r2,zero,803d6c <logic+0x3aa8>
  803d4c:	e0bffd17 	ldw	r2,-12(fp)
  803d50:	10804003 	ldbu	r2,256(r2)
  803d54:	10803fcc 	andi	r2,r2,255
  803d58:	1080201c 	xori	r2,r2,128
  803d5c:	10bfe004 	addi	r2,r2,-128
  803d60:	1000021e 	bne	r2,zero,803d6c <logic+0x3aa8>
  803d64:	00800044 	movi	r2,1
  803d68:	00000106 	br	803d70 <logic+0x3aac>
  803d6c:	0005883a 	mov	r2,zero
  803d70:	1007883a 	mov	r3,r2
  803d74:	e0bffd17 	ldw	r2,-12(fp)
  803d78:	10c022c5 	stb	r3,139(r2)
  d->_g88 = (d->_g79 && d->_cg115) || (d->_g135 && d->_cg141);
  803d7c:	e0bffd17 	ldw	r2,-12(fp)
  803d80:	10802203 	ldbu	r2,136(r2)
  803d84:	10803fcc 	andi	r2,r2,255
  803d88:	1080201c 	xori	r2,r2,128
  803d8c:	10bfe004 	addi	r2,r2,-128
  803d90:	10000626 	beq	r2,zero,803dac <logic+0x3ae8>
  803d94:	e0bffd17 	ldw	r2,-12(fp)
  803d98:	10804003 	ldbu	r2,256(r2)
  803d9c:	10803fcc 	andi	r2,r2,255
  803da0:	1080201c 	xori	r2,r2,128
  803da4:	10bfe004 	addi	r2,r2,-128
  803da8:	10000c1e 	bne	r2,zero,803ddc <logic+0x3b18>
  803dac:	e0bffd17 	ldw	r2,-12(fp)
  803db0:	10802bc3 	ldbu	r2,175(r2)
  803db4:	10803fcc 	andi	r2,r2,255
  803db8:	1080201c 	xori	r2,r2,128
  803dbc:	10bfe004 	addi	r2,r2,-128
  803dc0:	10000826 	beq	r2,zero,803de4 <logic+0x3b20>
  803dc4:	e0bffd17 	ldw	r2,-12(fp)
  803dc8:	10804043 	ldbu	r2,257(r2)
  803dcc:	10803fcc 	andi	r2,r2,255
  803dd0:	1080201c 	xori	r2,r2,128
  803dd4:	10bfe004 	addi	r2,r2,-128
  803dd8:	10000226 	beq	r2,zero,803de4 <logic+0x3b20>
  803ddc:	00800044 	movi	r2,1
  803de0:	00000106 	br	803de8 <logic+0x3b24>
  803de4:	0005883a 	mov	r2,zero
  803de8:	1007883a 	mov	r3,r2
  803dec:	e0bffd17 	ldw	r2,-12(fp)
  803df0:	10c023c5 	stb	r3,143(r2)
  if (d->_g88) {
  803df4:	e0bffd17 	ldw	r2,-12(fp)
  803df8:	108023c3 	ldbu	r2,143(r2)
  803dfc:	10803fcc 	andi	r2,r2,255
  803e00:	1080201c 	xori	r2,r2,128
  803e04:	10bfe004 	addi	r2,r2,-128
  803e08:	10000926 	beq	r2,zero,803e30 <logic+0x3b6c>
    d->_PaceMaker_local_aei_clk = 0.0;
  803e0c:	e0bffd17 	ldw	r2,-12(fp)
  803e10:	10000f15 	stw	zero,60(r2)
  803e14:	10001015 	stw	zero,64(r2)
    d->_PaceMaker_local__Atrig6 = 0;
  803e18:	e0bffd17 	ldw	r2,-12(fp)
  803e1c:	10000c05 	stb	zero,48(r2)
    d->_PaceMaker_local__Atrig7 = 0;
  803e20:	e0bffd17 	ldw	r2,-12(fp)
  803e24:	10000c45 	stb	zero,49(r2)
    d->_PaceMaker_local__Atrig8 = 0;
  803e28:	e0bffd17 	ldw	r2,-12(fp)
  803e2c:	10000c85 	stb	zero,50(r2)
  }
  d->_cg117 = d->_PaceMaker_local_aei_clk < AEI_VALUE;
  803e30:	e13ffd17 	ldw	r4,-12(fp)
  803e34:	20800f17 	ldw	r2,60(r4)
  803e38:	20c01017 	ldw	r3,64(r4)
  803e3c:	04000044 	movi	r16,1
  803e40:	000d883a 	mov	r6,zero
  803e44:	01d02274 	movhi	r7,16521
  803e48:	1009883a 	mov	r4,r2
  803e4c:	180b883a 	mov	r5,r3
  803e50:	0806f2c0 	call	806f2c <__ledf2>
  803e54:	10000116 	blt	r2,zero,803e5c <logic+0x3b98>
  803e58:	0021883a 	mov	r16,zero
  803e5c:	8007883a 	mov	r3,r16
  803e60:	e0bffd17 	ldw	r2,-12(fp)
  803e64:	10c04085 	stb	r3,258(r2)
  d->_g85 = d->_g88 && d->_cg117;
  803e68:	e0bffd17 	ldw	r2,-12(fp)
  803e6c:	108023c3 	ldbu	r2,143(r2)
  803e70:	10803fcc 	andi	r2,r2,255
  803e74:	1080201c 	xori	r2,r2,128
  803e78:	10bfe004 	addi	r2,r2,-128
  803e7c:	10000826 	beq	r2,zero,803ea0 <logic+0x3bdc>
  803e80:	e0bffd17 	ldw	r2,-12(fp)
  803e84:	10804083 	ldbu	r2,258(r2)
  803e88:	10803fcc 	andi	r2,r2,255
  803e8c:	1080201c 	xori	r2,r2,128
  803e90:	10bfe004 	addi	r2,r2,-128
  803e94:	10000226 	beq	r2,zero,803ea0 <logic+0x3bdc>
  803e98:	00800044 	movi	r2,1
  803e9c:	00000106 	br	803ea4 <logic+0x3be0>
  803ea0:	0005883a 	mov	r2,zero
  803ea4:	1007883a 	mov	r3,r2
  803ea8:	e0bffd17 	ldw	r2,-12(fp)
  803eac:	10c02345 	stb	r3,141(r2)
  if (d->_g85) {
  803eb0:	e0bffd17 	ldw	r2,-12(fp)
  803eb4:	10802343 	ldbu	r2,141(r2)
  803eb8:	10803fcc 	andi	r2,r2,255
  803ebc:	1080201c 	xori	r2,r2,128
  803ec0:	10bfe004 	addi	r2,r2,-128
  803ec4:	10002826 	beq	r2,zero,803f68 <logic+0x3ca4>
    d->sleepT = (d->sleepT < (AEI_VALUE - d->_PaceMaker_local_aei_clk)) ? d->sleepT : (AEI_VALUE - d->_PaceMaker_local_aei_clk);
  803ec8:	e0bffd17 	ldw	r2,-12(fp)
  803ecc:	14000217 	ldw	r16,8(r2)
  803ed0:	14400317 	ldw	r17,12(r2)
  803ed4:	e13ffd17 	ldw	r4,-12(fp)
  803ed8:	20800f17 	ldw	r2,60(r4)
  803edc:	20c01017 	ldw	r3,64(r4)
  803ee0:	100d883a 	mov	r6,r2
  803ee4:	180f883a 	mov	r7,r3
  803ee8:	0009883a 	mov	r4,zero
  803eec:	01502274 	movhi	r5,16521
  803ef0:	08070200 	call	807020 <__subdf3>
  803ef4:	1009883a 	mov	r4,r2
  803ef8:	180b883a 	mov	r5,r3
  803efc:	2005883a 	mov	r2,r4
  803f00:	2807883a 	mov	r3,r5
  803f04:	100d883a 	mov	r6,r2
  803f08:	180f883a 	mov	r7,r3
  803f0c:	8009883a 	mov	r4,r16
  803f10:	880b883a 	mov	r5,r17
  803f14:	0806f2c0 	call	806f2c <__ledf2>
  803f18:	1000040e 	bge	r2,zero,803f2c <logic+0x3c68>
  803f1c:	e13ffd17 	ldw	r4,-12(fp)
  803f20:	20800217 	ldw	r2,8(r4)
  803f24:	20c00317 	ldw	r3,12(r4)
  803f28:	00000c06 	br	803f5c <logic+0x3c98>
  803f2c:	e13ffd17 	ldw	r4,-12(fp)
  803f30:	20800f17 	ldw	r2,60(r4)
  803f34:	20c01017 	ldw	r3,64(r4)
  803f38:	100d883a 	mov	r6,r2
  803f3c:	180f883a 	mov	r7,r3
  803f40:	0009883a 	mov	r4,zero
  803f44:	01502274 	movhi	r5,16521
  803f48:	08070200 	call	807020 <__subdf3>
  803f4c:	1009883a 	mov	r4,r2
  803f50:	180b883a 	mov	r5,r3
  803f54:	2005883a 	mov	r2,r4
  803f58:	2807883a 	mov	r3,r5
  803f5c:	e13ffd17 	ldw	r4,-12(fp)
  803f60:	20800215 	stw	r2,8(r4)
  803f64:	20c00315 	stw	r3,12(r4)
  }
  d->_cg118 = d->_PaceMaker_local__Atrig6 || d->_PaceMaker_local__Atrig7 || d->_PaceMaker_local__Atrig8;
  803f68:	e0bffd17 	ldw	r2,-12(fp)
  803f6c:	10800c03 	ldbu	r2,48(r2)
  803f70:	10803fcc 	andi	r2,r2,255
  803f74:	1080201c 	xori	r2,r2,128
  803f78:	10bfe004 	addi	r2,r2,-128
  803f7c:	10000c1e 	bne	r2,zero,803fb0 <logic+0x3cec>
  803f80:	e0bffd17 	ldw	r2,-12(fp)
  803f84:	10800c43 	ldbu	r2,49(r2)
  803f88:	10803fcc 	andi	r2,r2,255
  803f8c:	1080201c 	xori	r2,r2,128
  803f90:	10bfe004 	addi	r2,r2,-128
  803f94:	1000061e 	bne	r2,zero,803fb0 <logic+0x3cec>
  803f98:	e0bffd17 	ldw	r2,-12(fp)
  803f9c:	10800c83 	ldbu	r2,50(r2)
  803fa0:	10803fcc 	andi	r2,r2,255
  803fa4:	1080201c 	xori	r2,r2,128
  803fa8:	10bfe004 	addi	r2,r2,-128
  803fac:	10000226 	beq	r2,zero,803fb8 <logic+0x3cf4>
  803fb0:	00800044 	movi	r2,1
  803fb4:	00000106 	br	803fbc <logic+0x3cf8>
  803fb8:	0005883a 	mov	r2,zero
  803fbc:	1007883a 	mov	r3,r2
  803fc0:	e0bffd17 	ldw	r2,-12(fp)
  803fc4:	10c040c5 	stb	r3,259(r2)
  d->_g91 = (d->_g85 && !d->_cg118) || (d->_g126 && !d->_cg122);
  803fc8:	e0bffd17 	ldw	r2,-12(fp)
  803fcc:	10802343 	ldbu	r2,141(r2)
  803fd0:	10803fcc 	andi	r2,r2,255
  803fd4:	1080201c 	xori	r2,r2,128
  803fd8:	10bfe004 	addi	r2,r2,-128
  803fdc:	10000626 	beq	r2,zero,803ff8 <logic+0x3d34>
  803fe0:	e0bffd17 	ldw	r2,-12(fp)
  803fe4:	108040c3 	ldbu	r2,259(r2)
  803fe8:	10803fcc 	andi	r2,r2,255
  803fec:	1080201c 	xori	r2,r2,128
  803ff0:	10bfe004 	addi	r2,r2,-128
  803ff4:	10000c26 	beq	r2,zero,804028 <logic+0x3d64>
  803ff8:	e0bffd17 	ldw	r2,-12(fp)
  803ffc:	10802a83 	ldbu	r2,170(r2)
  804000:	10803fcc 	andi	r2,r2,255
  804004:	1080201c 	xori	r2,r2,128
  804008:	10bfe004 	addi	r2,r2,-128
  80400c:	10000826 	beq	r2,zero,804030 <logic+0x3d6c>
  804010:	e0bffd17 	ldw	r2,-12(fp)
  804014:	10804103 	ldbu	r2,260(r2)
  804018:	10803fcc 	andi	r2,r2,255
  80401c:	1080201c 	xori	r2,r2,128
  804020:	10bfe004 	addi	r2,r2,-128
  804024:	1000021e 	bne	r2,zero,804030 <logic+0x3d6c>
  804028:	00800044 	movi	r2,1
  80402c:	00000106 	br	804034 <logic+0x3d70>
  804030:	0005883a 	mov	r2,zero
  804034:	1007883a 	mov	r3,r2
  804038:	e0bffd17 	ldw	r2,-12(fp)
  80403c:	10c02405 	stb	r3,144(r2)
  d->_g66 = d->_g88 && !d->_cg117;
  804040:	e0bffd17 	ldw	r2,-12(fp)
  804044:	108023c3 	ldbu	r2,143(r2)
  804048:	10803fcc 	andi	r2,r2,255
  80404c:	1080201c 	xori	r2,r2,128
  804050:	10bfe004 	addi	r2,r2,-128
  804054:	10000826 	beq	r2,zero,804078 <logic+0x3db4>
  804058:	e0bffd17 	ldw	r2,-12(fp)
  80405c:	10804083 	ldbu	r2,258(r2)
  804060:	10803fcc 	andi	r2,r2,255
  804064:	1080201c 	xori	r2,r2,128
  804068:	10bfe004 	addi	r2,r2,-128
  80406c:	1000021e 	bne	r2,zero,804078 <logic+0x3db4>
  804070:	00800044 	movi	r2,1
  804074:	00000106 	br	80407c <logic+0x3db8>
  804078:	0005883a 	mov	r2,zero
  80407c:	1007883a 	mov	r3,r2
  804080:	e0bffd17 	ldw	r2,-12(fp)
  804084:	10c01fc5 	stb	r3,127(r2)
  d->_cg127 = d->_PaceMaker_local__Atrig6 || d->_PaceMaker_local__Atrig7 || d->_PaceMaker_local__Atrig8;
  804088:	e0bffd17 	ldw	r2,-12(fp)
  80408c:	10800c03 	ldbu	r2,48(r2)
  804090:	10803fcc 	andi	r2,r2,255
  804094:	1080201c 	xori	r2,r2,128
  804098:	10bfe004 	addi	r2,r2,-128
  80409c:	10000c1e 	bne	r2,zero,8040d0 <logic+0x3e0c>
  8040a0:	e0bffd17 	ldw	r2,-12(fp)
  8040a4:	10800c43 	ldbu	r2,49(r2)
  8040a8:	10803fcc 	andi	r2,r2,255
  8040ac:	1080201c 	xori	r2,r2,128
  8040b0:	10bfe004 	addi	r2,r2,-128
  8040b4:	1000061e 	bne	r2,zero,8040d0 <logic+0x3e0c>
  8040b8:	e0bffd17 	ldw	r2,-12(fp)
  8040bc:	10800c83 	ldbu	r2,50(r2)
  8040c0:	10803fcc 	andi	r2,r2,255
  8040c4:	1080201c 	xori	r2,r2,128
  8040c8:	10bfe004 	addi	r2,r2,-128
  8040cc:	10000226 	beq	r2,zero,8040d8 <logic+0x3e14>
  8040d0:	00800044 	movi	r2,1
  8040d4:	00000106 	br	8040dc <logic+0x3e18>
  8040d8:	0005883a 	mov	r2,zero
  8040dc:	1007883a 	mov	r3,r2
  8040e0:	e0bffd17 	ldw	r2,-12(fp)
  8040e4:	10c041c5 	stb	r3,263(r2)
  d->_g102 = (d->_g121 && !d->_cg124) || (d->_g66 && !d->_cg127);
  8040e8:	e0bffd17 	ldw	r2,-12(fp)
  8040ec:	10802983 	ldbu	r2,166(r2)
  8040f0:	10803fcc 	andi	r2,r2,255
  8040f4:	1080201c 	xori	r2,r2,128
  8040f8:	10bfe004 	addi	r2,r2,-128
  8040fc:	10000626 	beq	r2,zero,804118 <logic+0x3e54>
  804100:	e0bffd17 	ldw	r2,-12(fp)
  804104:	10804183 	ldbu	r2,262(r2)
  804108:	10803fcc 	andi	r2,r2,255
  80410c:	1080201c 	xori	r2,r2,128
  804110:	10bfe004 	addi	r2,r2,-128
  804114:	10000c26 	beq	r2,zero,804148 <logic+0x3e84>
  804118:	e0bffd17 	ldw	r2,-12(fp)
  80411c:	10801fc3 	ldbu	r2,127(r2)
  804120:	10803fcc 	andi	r2,r2,255
  804124:	1080201c 	xori	r2,r2,128
  804128:	10bfe004 	addi	r2,r2,-128
  80412c:	10000826 	beq	r2,zero,804150 <logic+0x3e8c>
  804130:	e0bffd17 	ldw	r2,-12(fp)
  804134:	108041c3 	ldbu	r2,263(r2)
  804138:	10803fcc 	andi	r2,r2,255
  80413c:	1080201c 	xori	r2,r2,128
  804140:	10bfe004 	addi	r2,r2,-128
  804144:	1000021e 	bne	r2,zero,804150 <logic+0x3e8c>
  804148:	00800044 	movi	r2,1
  80414c:	00000106 	br	804154 <logic+0x3e90>
  804150:	0005883a 	mov	r2,zero
  804154:	1007883a 	mov	r3,r2
  804158:	e0bffd17 	ldw	r2,-12(fp)
  80415c:	10c02645 	stb	r3,153(r2)
  d->_cg128 = d->_PaceMaker_local__Atrig6 || d->_PaceMaker_local__Atrig7 || d->_PaceMaker_local__Atrig8;
  804160:	e0bffd17 	ldw	r2,-12(fp)
  804164:	10800c03 	ldbu	r2,48(r2)
  804168:	10803fcc 	andi	r2,r2,255
  80416c:	1080201c 	xori	r2,r2,128
  804170:	10bfe004 	addi	r2,r2,-128
  804174:	10000c1e 	bne	r2,zero,8041a8 <logic+0x3ee4>
  804178:	e0bffd17 	ldw	r2,-12(fp)
  80417c:	10800c43 	ldbu	r2,49(r2)
  804180:	10803fcc 	andi	r2,r2,255
  804184:	1080201c 	xori	r2,r2,128
  804188:	10bfe004 	addi	r2,r2,-128
  80418c:	1000061e 	bne	r2,zero,8041a8 <logic+0x3ee4>
  804190:	e0bffd17 	ldw	r2,-12(fp)
  804194:	10800c83 	ldbu	r2,50(r2)
  804198:	10803fcc 	andi	r2,r2,255
  80419c:	1080201c 	xori	r2,r2,128
  8041a0:	10bfe004 	addi	r2,r2,-128
  8041a4:	10000226 	beq	r2,zero,8041b0 <logic+0x3eec>
  8041a8:	00800044 	movi	r2,1
  8041ac:	00000106 	br	8041b4 <logic+0x3ef0>
  8041b0:	0005883a 	mov	r2,zero
  8041b4:	1007883a 	mov	r3,r2
  8041b8:	e0bffd17 	ldw	r2,-12(fp)
  8041bc:	10c04205 	stb	r3,264(r2)
  d->_g109 = (d->_g88 && !d->_cg128) || (d->_g34 && !d->_cg130);
  8041c0:	e0bffd17 	ldw	r2,-12(fp)
  8041c4:	108023c3 	ldbu	r2,143(r2)
  8041c8:	10803fcc 	andi	r2,r2,255
  8041cc:	1080201c 	xori	r2,r2,128
  8041d0:	10bfe004 	addi	r2,r2,-128
  8041d4:	10000626 	beq	r2,zero,8041f0 <logic+0x3f2c>
  8041d8:	e0bffd17 	ldw	r2,-12(fp)
  8041dc:	10804203 	ldbu	r2,264(r2)
  8041e0:	10803fcc 	andi	r2,r2,255
  8041e4:	1080201c 	xori	r2,r2,128
  8041e8:	10bfe004 	addi	r2,r2,-128
  8041ec:	10000c26 	beq	r2,zero,804220 <logic+0x3f5c>
  8041f0:	e0bffd17 	ldw	r2,-12(fp)
  8041f4:	10801ac3 	ldbu	r2,107(r2)
  8041f8:	10803fcc 	andi	r2,r2,255
  8041fc:	1080201c 	xori	r2,r2,128
  804200:	10bfe004 	addi	r2,r2,-128
  804204:	10000826 	beq	r2,zero,804228 <logic+0x3f64>
  804208:	e0bffd17 	ldw	r2,-12(fp)
  80420c:	10804243 	ldbu	r2,265(r2)
  804210:	10803fcc 	andi	r2,r2,255
  804214:	1080201c 	xori	r2,r2,128
  804218:	10bfe004 	addi	r2,r2,-128
  80421c:	1000021e 	bne	r2,zero,804228 <logic+0x3f64>
  804220:	00800044 	movi	r2,1
  804224:	00000106 	br	80422c <logic+0x3f68>
  804228:	0005883a 	mov	r2,zero
  80422c:	1007883a 	mov	r3,r2
  804230:	e0bffd17 	ldw	r2,-12(fp)
  804234:	10c027c5 	stb	r3,159(r2)
  d->_g107 = d->_g88 || (d->_g137 && !d->_cg139);
  804238:	e0bffd17 	ldw	r2,-12(fp)
  80423c:	108023c3 	ldbu	r2,143(r2)
  804240:	10803fcc 	andi	r2,r2,255
  804244:	1080201c 	xori	r2,r2,128
  804248:	10bfe004 	addi	r2,r2,-128
  80424c:	10000c1e 	bne	r2,zero,804280 <logic+0x3fbc>
  804250:	e0bffd17 	ldw	r2,-12(fp)
  804254:	10802c43 	ldbu	r2,177(r2)
  804258:	10803fcc 	andi	r2,r2,255
  80425c:	1080201c 	xori	r2,r2,128
  804260:	10bfe004 	addi	r2,r2,-128
  804264:	10000826 	beq	r2,zero,804288 <logic+0x3fc4>
  804268:	e0bffd17 	ldw	r2,-12(fp)
  80426c:	10804283 	ldbu	r2,266(r2)
  804270:	10803fcc 	andi	r2,r2,255
  804274:	1080201c 	xori	r2,r2,128
  804278:	10bfe004 	addi	r2,r2,-128
  80427c:	1000021e 	bne	r2,zero,804288 <logic+0x3fc4>
  804280:	00800044 	movi	r2,1
  804284:	00000106 	br	80428c <logic+0x3fc8>
  804288:	0005883a 	mov	r2,zero
  80428c:	1007883a 	mov	r3,r2
  804290:	e0bffd17 	ldw	r2,-12(fp)
  804294:	10c02785 	stb	r3,158(r2)
  d->_g142 = !d->_g153;
  804298:	e0bffd17 	ldw	r2,-12(fp)
  80429c:	10802e83 	ldbu	r2,186(r2)
  8042a0:	10803fcc 	andi	r2,r2,255
  8042a4:	1080201c 	xori	r2,r2,128
  8042a8:	10bfe004 	addi	r2,r2,-128
  8042ac:	1005003a 	cmpeq	r2,r2,zero
  8042b0:	1007883a 	mov	r3,r2
  8042b4:	e0bffd17 	ldw	r2,-12(fp)
  8042b8:	10c02d85 	stb	r3,182(r2)
  d->_g143 = d->_pg177;
  8042bc:	e0bffd17 	ldw	r2,-12(fp)
  8042c0:	10c05703 	ldbu	r3,348(r2)
  8042c4:	e0bffd17 	ldw	r2,-12(fp)
  8042c8:	10c02dc5 	stb	r3,183(r2)
  d->_cg172 = d->VS && !d->ignore_VEvent;
  8042cc:	e0bffd17 	ldw	r2,-12(fp)
  8042d0:	10800443 	ldbu	r2,17(r2)
  8042d4:	10803fcc 	andi	r2,r2,255
  8042d8:	1080201c 	xori	r2,r2,128
  8042dc:	10bfe004 	addi	r2,r2,-128
  8042e0:	10000826 	beq	r2,zero,804304 <logic+0x4040>
  8042e4:	e0bffd17 	ldw	r2,-12(fp)
  8042e8:	10800543 	ldbu	r2,21(r2)
  8042ec:	10803fcc 	andi	r2,r2,255
  8042f0:	1080201c 	xori	r2,r2,128
  8042f4:	10bfe004 	addi	r2,r2,-128
  8042f8:	1000021e 	bne	r2,zero,804304 <logic+0x4040>
  8042fc:	00800044 	movi	r2,1
  804300:	00000106 	br	804308 <logic+0x4044>
  804304:	0005883a 	mov	r2,zero
  804308:	1007883a 	mov	r3,r2
  80430c:	e0bffd17 	ldw	r2,-12(fp)
  804310:	10c04685 	stb	r3,282(r2)
  d->_g141 = d->_g143 && d->_cg172;
  804314:	e0bffd17 	ldw	r2,-12(fp)
  804318:	10802dc3 	ldbu	r2,183(r2)
  80431c:	10803fcc 	andi	r2,r2,255
  804320:	1080201c 	xori	r2,r2,128
  804324:	10bfe004 	addi	r2,r2,-128
  804328:	10000826 	beq	r2,zero,80434c <logic+0x4088>
  80432c:	e0bffd17 	ldw	r2,-12(fp)
  804330:	10804683 	ldbu	r2,282(r2)
  804334:	10803fcc 	andi	r2,r2,255
  804338:	1080201c 	xori	r2,r2,128
  80433c:	10bfe004 	addi	r2,r2,-128
  804340:	10000226 	beq	r2,zero,80434c <logic+0x4088>
  804344:	00800044 	movi	r2,1
  804348:	00000106 	br	804350 <logic+0x408c>
  80434c:	0005883a 	mov	r2,zero
  804350:	1007883a 	mov	r3,r2
  804354:	e0bffd17 	ldw	r2,-12(fp)
  804358:	10c02d45 	stb	r3,181(r2)
  if (d->_g141) {
  80435c:	e0bffd17 	ldw	r2,-12(fp)
  804360:	10802d43 	ldbu	r2,181(r2)
  804364:	10803fcc 	andi	r2,r2,255
  804368:	1080201c 	xori	r2,r2,128
  80436c:	10bfe004 	addi	r2,r2,-128
  804370:	10000326 	beq	r2,zero,804380 <logic+0x40bc>
    d->_PaceMaker_local__Atrig9 = 1;
  804374:	e0bffd17 	ldw	r2,-12(fp)
  804378:	00c00044 	movi	r3,1
  80437c:	10c01105 	stb	r3,68(r2)
  }
  d->_g115 = d->_pg149;
  804380:	e0bffd17 	ldw	r2,-12(fp)
  804384:	10c05743 	ldbu	r3,349(r2)
  804388:	e0bffd17 	ldw	r2,-12(fp)
  80438c:	10c02885 	stb	r3,162(r2)
  if (d->_g115) {
  804390:	e0bffd17 	ldw	r2,-12(fp)
  804394:	10802883 	ldbu	r2,162(r2)
  804398:	10803fcc 	andi	r2,r2,255
  80439c:	1080201c 	xori	r2,r2,128
  8043a0:	10bfe004 	addi	r2,r2,-128
  8043a4:	10001226 	beq	r2,zero,8043f0 <logic+0x412c>
    d->_PaceMaker_local_uri_clk += d->deltaT;
  8043a8:	e13ffd17 	ldw	r4,-12(fp)
  8043ac:	20801217 	ldw	r2,72(r4)
  8043b0:	20c01317 	ldw	r3,76(r4)
  8043b4:	e1bffd17 	ldw	r6,-12(fp)
  8043b8:	31000017 	ldw	r4,0(r6)
  8043bc:	31400117 	ldw	r5,4(r6)
  8043c0:	200d883a 	mov	r6,r4
  8043c4:	280f883a 	mov	r7,r5
  8043c8:	1009883a 	mov	r4,r2
  8043cc:	180b883a 	mov	r5,r3
  8043d0:	08065a40 	call	8065a4 <__adddf3>
  8043d4:	1009883a 	mov	r4,r2
  8043d8:	180b883a 	mov	r5,r3
  8043dc:	2005883a 	mov	r2,r4
  8043e0:	2807883a 	mov	r3,r5
  8043e4:	e13ffd17 	ldw	r4,-12(fp)
  8043e8:	20801215 	stw	r2,72(r4)
  8043ec:	20c01315 	stw	r3,76(r4)
  }
  d->_g118 = d->_g143 && !d->_cg172;
  8043f0:	e0bffd17 	ldw	r2,-12(fp)
  8043f4:	10802dc3 	ldbu	r2,183(r2)
  8043f8:	10803fcc 	andi	r2,r2,255
  8043fc:	1080201c 	xori	r2,r2,128
  804400:	10bfe004 	addi	r2,r2,-128
  804404:	10000826 	beq	r2,zero,804428 <logic+0x4164>
  804408:	e0bffd17 	ldw	r2,-12(fp)
  80440c:	10804683 	ldbu	r2,282(r2)
  804410:	10803fcc 	andi	r2,r2,255
  804414:	1080201c 	xori	r2,r2,128
  804418:	10bfe004 	addi	r2,r2,-128
  80441c:	1000021e 	bne	r2,zero,804428 <logic+0x4164>
  804420:	00800044 	movi	r2,1
  804424:	00000106 	br	80442c <logic+0x4168>
  804428:	0005883a 	mov	r2,zero
  80442c:	1007883a 	mov	r3,r2
  804430:	e0bffd17 	ldw	r2,-12(fp)
  804434:	10c02905 	stb	r3,164(r2)
  d->_cg175 = d->_PaceMaker_local_uri_clk >= URI_VALUE - 1 && !(d->VS || d->VP);
  804438:	e13ffd17 	ldw	r4,-12(fp)
  80443c:	20801217 	ldw	r2,72(r4)
  804440:	20c01317 	ldw	r3,76(r4)
  804444:	000d883a 	mov	r6,zero
  804448:	01d02334 	movhi	r7,16524
  80444c:	39c60004 	addi	r7,r7,6144
  804450:	1009883a 	mov	r4,r2
  804454:	180b883a 	mov	r5,r3
  804458:	0806e500 	call	806e50 <__gedf2>
  80445c:	10000e16 	blt	r2,zero,804498 <logic+0x41d4>
  804460:	e0bffd17 	ldw	r2,-12(fp)
  804464:	10800443 	ldbu	r2,17(r2)
  804468:	10803fcc 	andi	r2,r2,255
  80446c:	1080201c 	xori	r2,r2,128
  804470:	10bfe004 	addi	r2,r2,-128
  804474:	1000081e 	bne	r2,zero,804498 <logic+0x41d4>
  804478:	e0bffd17 	ldw	r2,-12(fp)
  80447c:	108004c3 	ldbu	r2,19(r2)
  804480:	10803fcc 	andi	r2,r2,255
  804484:	1080201c 	xori	r2,r2,128
  804488:	10bfe004 	addi	r2,r2,-128
  80448c:	1000021e 	bne	r2,zero,804498 <logic+0x41d4>
  804490:	00800044 	movi	r2,1
  804494:	00000106 	br	80449c <logic+0x41d8>
  804498:	0005883a 	mov	r2,zero
  80449c:	1007883a 	mov	r3,r2
  8044a0:	e0bffd17 	ldw	r2,-12(fp)
  8044a4:	10c04645 	stb	r3,281(r2)
  d->_g122 = d->_g118 && d->_cg175;
  8044a8:	e0bffd17 	ldw	r2,-12(fp)
  8044ac:	10802903 	ldbu	r2,164(r2)
  8044b0:	10803fcc 	andi	r2,r2,255
  8044b4:	1080201c 	xori	r2,r2,128
  8044b8:	10bfe004 	addi	r2,r2,-128
  8044bc:	10000826 	beq	r2,zero,8044e0 <logic+0x421c>
  8044c0:	e0bffd17 	ldw	r2,-12(fp)
  8044c4:	10804643 	ldbu	r2,281(r2)
  8044c8:	10803fcc 	andi	r2,r2,255
  8044cc:	1080201c 	xori	r2,r2,128
  8044d0:	10bfe004 	addi	r2,r2,-128
  8044d4:	10000226 	beq	r2,zero,8044e0 <logic+0x421c>
  8044d8:	00800044 	movi	r2,1
  8044dc:	00000106 	br	8044e4 <logic+0x4220>
  8044e0:	0005883a 	mov	r2,zero
  8044e4:	1007883a 	mov	r3,r2
  8044e8:	e0bffd17 	ldw	r2,-12(fp)
  8044ec:	10c029c5 	stb	r3,167(r2)
  if (d->_g122) {
  8044f0:	e0bffd17 	ldw	r2,-12(fp)
  8044f4:	108029c3 	ldbu	r2,167(r2)
  8044f8:	10803fcc 	andi	r2,r2,255
  8044fc:	1080201c 	xori	r2,r2,128
  804500:	10bfe004 	addi	r2,r2,-128
  804504:	10000326 	beq	r2,zero,804514 <logic+0x4250>
    d->_PaceMaker_local__Atrig10 = 1;
  804508:	e0bffd17 	ldw	r2,-12(fp)
  80450c:	00c00044 	movi	r3,1
  804510:	10c01145 	stb	r3,69(r2)
  }
  d->_cg153 = d->_PaceMaker_local__Atrig9 || d->_PaceMaker_local__Atrig10;
  804514:	e0bffd17 	ldw	r2,-12(fp)
  804518:	10801103 	ldbu	r2,68(r2)
  80451c:	10803fcc 	andi	r2,r2,255
  804520:	1080201c 	xori	r2,r2,128
  804524:	10bfe004 	addi	r2,r2,-128
  804528:	1000061e 	bne	r2,zero,804544 <logic+0x4280>
  80452c:	e0bffd17 	ldw	r2,-12(fp)
  804530:	10801143 	ldbu	r2,69(r2)
  804534:	10803fcc 	andi	r2,r2,255
  804538:	1080201c 	xori	r2,r2,128
  80453c:	10bfe004 	addi	r2,r2,-128
  804540:	10000226 	beq	r2,zero,80454c <logic+0x4288>
  804544:	00800044 	movi	r2,1
  804548:	00000106 	br	804550 <logic+0x428c>
  80454c:	0005883a 	mov	r2,zero
  804550:	1007883a 	mov	r3,r2
  804554:	e0bffd17 	ldw	r2,-12(fp)
  804558:	10c04405 	stb	r3,272(r2)
  d->_g127 = d->_g153 && d->_cg153;
  80455c:	e0bffd17 	ldw	r2,-12(fp)
  804560:	10802e83 	ldbu	r2,186(r2)
  804564:	10803fcc 	andi	r2,r2,255
  804568:	1080201c 	xori	r2,r2,128
  80456c:	10bfe004 	addi	r2,r2,-128
  804570:	10000826 	beq	r2,zero,804594 <logic+0x42d0>
  804574:	e0bffd17 	ldw	r2,-12(fp)
  804578:	10804403 	ldbu	r2,272(r2)
  80457c:	10803fcc 	andi	r2,r2,255
  804580:	1080201c 	xori	r2,r2,128
  804584:	10bfe004 	addi	r2,r2,-128
  804588:	10000226 	beq	r2,zero,804594 <logic+0x42d0>
  80458c:	00800044 	movi	r2,1
  804590:	00000106 	br	804598 <logic+0x42d4>
  804594:	0005883a 	mov	r2,zero
  804598:	1007883a 	mov	r3,r2
  80459c:	e0bffd17 	ldw	r2,-12(fp)
  8045a0:	10c02ac5 	stb	r3,171(r2)
  d->_g124 = d->_pg161;
  8045a4:	e0bffd17 	ldw	r2,-12(fp)
  8045a8:	10c05783 	ldbu	r3,350(r2)
  8045ac:	e0bffd17 	ldw	r2,-12(fp)
  8045b0:	10c02a45 	stb	r3,169(r2)
  d->_g130 = d->_pg161_e2;
  8045b4:	e0bffd17 	ldw	r2,-12(fp)
  8045b8:	10c057c3 	ldbu	r3,351(r2)
  8045bc:	e0bffd17 	ldw	r2,-12(fp)
  8045c0:	10c02b05 	stb	r3,172(r2)
  d->_g116 = !(d->_g124 || d->_g130);
  8045c4:	e0bffd17 	ldw	r2,-12(fp)
  8045c8:	10802a43 	ldbu	r2,169(r2)
  8045cc:	10803fcc 	andi	r2,r2,255
  8045d0:	1080201c 	xori	r2,r2,128
  8045d4:	10bfe004 	addi	r2,r2,-128
  8045d8:	1000081e 	bne	r2,zero,8045fc <logic+0x4338>
  8045dc:	e0bffd17 	ldw	r2,-12(fp)
  8045e0:	10802b03 	ldbu	r2,172(r2)
  8045e4:	10803fcc 	andi	r2,r2,255
  8045e8:	1080201c 	xori	r2,r2,128
  8045ec:	10bfe004 	addi	r2,r2,-128
  8045f0:	1000021e 	bne	r2,zero,8045fc <logic+0x4338>
  8045f4:	00800044 	movi	r2,1
  8045f8:	00000106 	br	804600 <logic+0x433c>
  8045fc:	0005883a 	mov	r2,zero
  804600:	1007883a 	mov	r3,r2
  804604:	e0bffd17 	ldw	r2,-12(fp)
  804608:	10c028c5 	stb	r3,163(r2)
  d->_g139 = d->_g130 || d->_g124;
  80460c:	e0bffd17 	ldw	r2,-12(fp)
  804610:	10802b03 	ldbu	r2,172(r2)
  804614:	10803fcc 	andi	r2,r2,255
  804618:	1080201c 	xori	r2,r2,128
  80461c:	10bfe004 	addi	r2,r2,-128
  804620:	1000061e 	bne	r2,zero,80463c <logic+0x4378>
  804624:	e0bffd17 	ldw	r2,-12(fp)
  804628:	10802a43 	ldbu	r2,169(r2)
  80462c:	10803fcc 	andi	r2,r2,255
  804630:	1080201c 	xori	r2,r2,128
  804634:	10bfe004 	addi	r2,r2,-128
  804638:	10000226 	beq	r2,zero,804644 <logic+0x4380>
  80463c:	00800044 	movi	r2,1
  804640:	00000106 	br	804648 <logic+0x4384>
  804644:	0005883a 	mov	r2,zero
  804648:	1007883a 	mov	r3,r2
  80464c:	e0bffd17 	ldw	r2,-12(fp)
  804650:	10c02cc5 	stb	r3,179(r2)
  d->_cg159 = d->_PaceMaker_local_uri_clk < URI_VALUE - 1;
  804654:	e13ffd17 	ldw	r4,-12(fp)
  804658:	20801217 	ldw	r2,72(r4)
  80465c:	20c01317 	ldw	r3,76(r4)
  804660:	04000044 	movi	r16,1
  804664:	000d883a 	mov	r6,zero
  804668:	01d02334 	movhi	r7,16524
  80466c:	39c60004 	addi	r7,r7,6144
  804670:	1009883a 	mov	r4,r2
  804674:	180b883a 	mov	r5,r3
  804678:	0806f2c0 	call	806f2c <__ledf2>
  80467c:	10000116 	blt	r2,zero,804684 <logic+0x43c0>
  804680:	0021883a 	mov	r16,zero
  804684:	8007883a 	mov	r3,r16
  804688:	e0bffd17 	ldw	r2,-12(fp)
  80468c:	10c04505 	stb	r3,276(r2)
  d->_g164 = d->_g139 && d->_cg159;
  804690:	e0bffd17 	ldw	r2,-12(fp)
  804694:	10802cc3 	ldbu	r2,179(r2)
  804698:	10803fcc 	andi	r2,r2,255
  80469c:	1080201c 	xori	r2,r2,128
  8046a0:	10bfe004 	addi	r2,r2,-128
  8046a4:	10000826 	beq	r2,zero,8046c8 <logic+0x4404>
  8046a8:	e0bffd17 	ldw	r2,-12(fp)
  8046ac:	10804503 	ldbu	r2,276(r2)
  8046b0:	10803fcc 	andi	r2,r2,255
  8046b4:	1080201c 	xori	r2,r2,128
  8046b8:	10bfe004 	addi	r2,r2,-128
  8046bc:	10000226 	beq	r2,zero,8046c8 <logic+0x4404>
  8046c0:	00800044 	movi	r2,1
  8046c4:	00000106 	br	8046cc <logic+0x4408>
  8046c8:	0005883a 	mov	r2,zero
  8046cc:	1007883a 	mov	r3,r2
  8046d0:	e0bffd17 	ldw	r2,-12(fp)
  8046d4:	10c03085 	stb	r3,194(r2)
  if (d->_g164) {
  8046d8:	e0bffd17 	ldw	r2,-12(fp)
  8046dc:	10803083 	ldbu	r2,194(r2)
  8046e0:	10803fcc 	andi	r2,r2,255
  8046e4:	1080201c 	xori	r2,r2,128
  8046e8:	10bfe004 	addi	r2,r2,-128
  8046ec:	10002a26 	beq	r2,zero,804798 <logic+0x44d4>
    d->sleepT = (d->sleepT < (URI_VALUE - 1 - d->_PaceMaker_local_uri_clk)) ? d->sleepT : (URI_VALUE - 1 - d->_PaceMaker_local_uri_clk);
  8046f0:	e0bffd17 	ldw	r2,-12(fp)
  8046f4:	14000217 	ldw	r16,8(r2)
  8046f8:	14400317 	ldw	r17,12(r2)
  8046fc:	e13ffd17 	ldw	r4,-12(fp)
  804700:	20801217 	ldw	r2,72(r4)
  804704:	20c01317 	ldw	r3,76(r4)
  804708:	100d883a 	mov	r6,r2
  80470c:	180f883a 	mov	r7,r3
  804710:	0009883a 	mov	r4,zero
  804714:	01502334 	movhi	r5,16524
  804718:	29460004 	addi	r5,r5,6144
  80471c:	08070200 	call	807020 <__subdf3>
  804720:	1009883a 	mov	r4,r2
  804724:	180b883a 	mov	r5,r3
  804728:	2005883a 	mov	r2,r4
  80472c:	2807883a 	mov	r3,r5
  804730:	100d883a 	mov	r6,r2
  804734:	180f883a 	mov	r7,r3
  804738:	8009883a 	mov	r4,r16
  80473c:	880b883a 	mov	r5,r17
  804740:	0806f2c0 	call	806f2c <__ledf2>
  804744:	1000040e 	bge	r2,zero,804758 <logic+0x4494>
  804748:	e13ffd17 	ldw	r4,-12(fp)
  80474c:	20800217 	ldw	r2,8(r4)
  804750:	20c00317 	ldw	r3,12(r4)
  804754:	00000d06 	br	80478c <logic+0x44c8>
  804758:	e13ffd17 	ldw	r4,-12(fp)
  80475c:	20801217 	ldw	r2,72(r4)
  804760:	20c01317 	ldw	r3,76(r4)
  804764:	100d883a 	mov	r6,r2
  804768:	180f883a 	mov	r7,r3
  80476c:	0009883a 	mov	r4,zero
  804770:	01502334 	movhi	r5,16524
  804774:	29460004 	addi	r5,r5,6144
  804778:	08070200 	call	807020 <__subdf3>
  80477c:	1009883a 	mov	r4,r2
  804780:	180b883a 	mov	r5,r3
  804784:	2005883a 	mov	r2,r4
  804788:	2807883a 	mov	r3,r5
  80478c:	e13ffd17 	ldw	r4,-12(fp)
  804790:	20800215 	stw	r2,8(r4)
  804794:	20c00315 	stw	r3,12(r4)
  }
  d->_cg160 = d->_PaceMaker_local__Atrig9 || d->_PaceMaker_local__Atrig10;
  804798:	e0bffd17 	ldw	r2,-12(fp)
  80479c:	10801103 	ldbu	r2,68(r2)
  8047a0:	10803fcc 	andi	r2,r2,255
  8047a4:	1080201c 	xori	r2,r2,128
  8047a8:	10bfe004 	addi	r2,r2,-128
  8047ac:	1000061e 	bne	r2,zero,8047c8 <logic+0x4504>
  8047b0:	e0bffd17 	ldw	r2,-12(fp)
  8047b4:	10801143 	ldbu	r2,69(r2)
  8047b8:	10803fcc 	andi	r2,r2,255
  8047bc:	1080201c 	xori	r2,r2,128
  8047c0:	10bfe004 	addi	r2,r2,-128
  8047c4:	10000226 	beq	r2,zero,8047d0 <logic+0x450c>
  8047c8:	00800044 	movi	r2,1
  8047cc:	00000106 	br	8047d4 <logic+0x4510>
  8047d0:	0005883a 	mov	r2,zero
  8047d4:	1007883a 	mov	r3,r2
  8047d8:	e0bffd17 	ldw	r2,-12(fp)
  8047dc:	10c044c5 	stb	r3,275(r2)
  d->_g158 = d->_g139 && !d->_cg159;
  8047e0:	e0bffd17 	ldw	r2,-12(fp)
  8047e4:	10802cc3 	ldbu	r2,179(r2)
  8047e8:	10803fcc 	andi	r2,r2,255
  8047ec:	1080201c 	xori	r2,r2,128
  8047f0:	10bfe004 	addi	r2,r2,-128
  8047f4:	10000826 	beq	r2,zero,804818 <logic+0x4554>
  8047f8:	e0bffd17 	ldw	r2,-12(fp)
  8047fc:	10804503 	ldbu	r2,276(r2)
  804800:	10803fcc 	andi	r2,r2,255
  804804:	1080201c 	xori	r2,r2,128
  804808:	10bfe004 	addi	r2,r2,-128
  80480c:	1000021e 	bne	r2,zero,804818 <logic+0x4554>
  804810:	00800044 	movi	r2,1
  804814:	00000106 	br	80481c <logic+0x4558>
  804818:	0005883a 	mov	r2,zero
  80481c:	1007883a 	mov	r3,r2
  804820:	e0bffd17 	ldw	r2,-12(fp)
  804824:	10c02f45 	stb	r3,189(r2)
  d->_cg162 = d->_PaceMaker_local__Atrig9 || d->_PaceMaker_local__Atrig10;
  804828:	e0bffd17 	ldw	r2,-12(fp)
  80482c:	10801103 	ldbu	r2,68(r2)
  804830:	10803fcc 	andi	r2,r2,255
  804834:	1080201c 	xori	r2,r2,128
  804838:	10bfe004 	addi	r2,r2,-128
  80483c:	1000061e 	bne	r2,zero,804858 <logic+0x4594>
  804840:	e0bffd17 	ldw	r2,-12(fp)
  804844:	10801143 	ldbu	r2,69(r2)
  804848:	10803fcc 	andi	r2,r2,255
  80484c:	1080201c 	xori	r2,r2,128
  804850:	10bfe004 	addi	r2,r2,-128
  804854:	10000226 	beq	r2,zero,804860 <logic+0x459c>
  804858:	00800044 	movi	r2,1
  80485c:	00000106 	br	804864 <logic+0x45a0>
  804860:	0005883a 	mov	r2,zero
  804864:	1007883a 	mov	r3,r2
  804868:	e0bffd17 	ldw	r2,-12(fp)
  80486c:	10c04545 	stb	r3,277(r2)
  d->_g159 = (d->_g164 && d->_cg160) || (d->_g158 && d->_cg162);
  804870:	e0bffd17 	ldw	r2,-12(fp)
  804874:	10803083 	ldbu	r2,194(r2)
  804878:	10803fcc 	andi	r2,r2,255
  80487c:	1080201c 	xori	r2,r2,128
  804880:	10bfe004 	addi	r2,r2,-128
  804884:	10000626 	beq	r2,zero,8048a0 <logic+0x45dc>
  804888:	e0bffd17 	ldw	r2,-12(fp)
  80488c:	108044c3 	ldbu	r2,275(r2)
  804890:	10803fcc 	andi	r2,r2,255
  804894:	1080201c 	xori	r2,r2,128
  804898:	10bfe004 	addi	r2,r2,-128
  80489c:	10000c1e 	bne	r2,zero,8048d0 <logic+0x460c>
  8048a0:	e0bffd17 	ldw	r2,-12(fp)
  8048a4:	10802f43 	ldbu	r2,189(r2)
  8048a8:	10803fcc 	andi	r2,r2,255
  8048ac:	1080201c 	xori	r2,r2,128
  8048b0:	10bfe004 	addi	r2,r2,-128
  8048b4:	10000826 	beq	r2,zero,8048d8 <logic+0x4614>
  8048b8:	e0bffd17 	ldw	r2,-12(fp)
  8048bc:	10804543 	ldbu	r2,277(r2)
  8048c0:	10803fcc 	andi	r2,r2,255
  8048c4:	1080201c 	xori	r2,r2,128
  8048c8:	10bfe004 	addi	r2,r2,-128
  8048cc:	10000226 	beq	r2,zero,8048d8 <logic+0x4614>
  8048d0:	00800044 	movi	r2,1
  8048d4:	00000106 	br	8048dc <logic+0x4618>
  8048d8:	0005883a 	mov	r2,zero
  8048dc:	1007883a 	mov	r3,r2
  8048e0:	e0bffd17 	ldw	r2,-12(fp)
  8048e4:	10c02f85 	stb	r3,190(r2)
  d->_g169_e3 = !d->_g115;
  8048e8:	e0bffd17 	ldw	r2,-12(fp)
  8048ec:	10802883 	ldbu	r2,162(r2)
  8048f0:	10803fcc 	andi	r2,r2,255
  8048f4:	1080201c 	xori	r2,r2,128
  8048f8:	10bfe004 	addi	r2,r2,-128
  8048fc:	1005003a 	cmpeq	r2,r2,zero
  804900:	1007883a 	mov	r3,r2
  804904:	e0bffd17 	ldw	r2,-12(fp)
  804908:	10c04e85 	stb	r3,314(r2)
  d->_cg168 = d->_PaceMaker_local__Atrig9 || d->_PaceMaker_local__Atrig10;
  80490c:	e0bffd17 	ldw	r2,-12(fp)
  804910:	10801103 	ldbu	r2,68(r2)
  804914:	10803fcc 	andi	r2,r2,255
  804918:	1080201c 	xori	r2,r2,128
  80491c:	10bfe004 	addi	r2,r2,-128
  804920:	1000061e 	bne	r2,zero,80493c <logic+0x4678>
  804924:	e0bffd17 	ldw	r2,-12(fp)
  804928:	10801143 	ldbu	r2,69(r2)
  80492c:	10803fcc 	andi	r2,r2,255
  804930:	1080201c 	xori	r2,r2,128
  804934:	10bfe004 	addi	r2,r2,-128
  804938:	10000226 	beq	r2,zero,804944 <logic+0x4680>
  80493c:	00800044 	movi	r2,1
  804940:	00000106 	br	804948 <logic+0x4684>
  804944:	0005883a 	mov	r2,zero
  804948:	1007883a 	mov	r3,r2
  80494c:	e0bffd17 	ldw	r2,-12(fp)
  804950:	10c04605 	stb	r3,280(r2)
  d->_g169 = d->_g115 && d->_cg168;
  804954:	e0bffd17 	ldw	r2,-12(fp)
  804958:	10802883 	ldbu	r2,162(r2)
  80495c:	10803fcc 	andi	r2,r2,255
  804960:	1080201c 	xori	r2,r2,128
  804964:	10bfe004 	addi	r2,r2,-128
  804968:	10000826 	beq	r2,zero,80498c <logic+0x46c8>
  80496c:	e0bffd17 	ldw	r2,-12(fp)
  804970:	10804603 	ldbu	r2,280(r2)
  804974:	10803fcc 	andi	r2,r2,255
  804978:	1080201c 	xori	r2,r2,128
  80497c:	10bfe004 	addi	r2,r2,-128
  804980:	10000226 	beq	r2,zero,80498c <logic+0x46c8>
  804984:	00800044 	movi	r2,1
  804988:	00000106 	br	804990 <logic+0x46cc>
  80498c:	0005883a 	mov	r2,zero
  804990:	1007883a 	mov	r3,r2
  804994:	e0bffd17 	ldw	r2,-12(fp)
  804998:	10c03145 	stb	r3,197(r2)
  d->_g172 = !d->_g143;
  80499c:	e0bffd17 	ldw	r2,-12(fp)
  8049a0:	10802dc3 	ldbu	r2,183(r2)
  8049a4:	10803fcc 	andi	r2,r2,255
  8049a8:	1080201c 	xori	r2,r2,128
  8049ac:	10bfe004 	addi	r2,r2,-128
  8049b0:	1005003a 	cmpeq	r2,r2,zero
  8049b4:	1007883a 	mov	r3,r2
  8049b8:	e0bffd17 	ldw	r2,-12(fp)
  8049bc:	10c03185 	stb	r3,198(r2)
  d->_g176 = d->_g141 || d->_g122;
  8049c0:	e0bffd17 	ldw	r2,-12(fp)
  8049c4:	10802d43 	ldbu	r2,181(r2)
  8049c8:	10803fcc 	andi	r2,r2,255
  8049cc:	1080201c 	xori	r2,r2,128
  8049d0:	10bfe004 	addi	r2,r2,-128
  8049d4:	1000061e 	bne	r2,zero,8049f0 <logic+0x472c>
  8049d8:	e0bffd17 	ldw	r2,-12(fp)
  8049dc:	108029c3 	ldbu	r2,167(r2)
  8049e0:	10803fcc 	andi	r2,r2,255
  8049e4:	1080201c 	xori	r2,r2,128
  8049e8:	10bfe004 	addi	r2,r2,-128
  8049ec:	10000226 	beq	r2,zero,8049f8 <logic+0x4734>
  8049f0:	00800044 	movi	r2,1
  8049f4:	00000106 	br	8049fc <logic+0x4738>
  8049f8:	0005883a 	mov	r2,zero
  8049fc:	1007883a 	mov	r3,r2
  804a00:	e0bffd17 	ldw	r2,-12(fp)
  804a04:	10c03285 	stb	r3,202(r2)
  d->_g173 = (d->_g142 || d->_g127) && (d->_g116 || d->_g159) && (d->_g169_e3 || d->_g169) && (d->_g172 || d->_g176) && (d->_g127 || d->_g159 || d->_g169 || d->_g176);
  804a08:	e0bffd17 	ldw	r2,-12(fp)
  804a0c:	10802d83 	ldbu	r2,182(r2)
  804a10:	10803fcc 	andi	r2,r2,255
  804a14:	1080201c 	xori	r2,r2,128
  804a18:	10bfe004 	addi	r2,r2,-128
  804a1c:	1000061e 	bne	r2,zero,804a38 <logic+0x4774>
  804a20:	e0bffd17 	ldw	r2,-12(fp)
  804a24:	10802ac3 	ldbu	r2,171(r2)
  804a28:	10803fcc 	andi	r2,r2,255
  804a2c:	1080201c 	xori	r2,r2,128
  804a30:	10bfe004 	addi	r2,r2,-128
  804a34:	10003e26 	beq	r2,zero,804b30 <logic+0x486c>
  804a38:	e0bffd17 	ldw	r2,-12(fp)
  804a3c:	108028c3 	ldbu	r2,163(r2)
  804a40:	10803fcc 	andi	r2,r2,255
  804a44:	1080201c 	xori	r2,r2,128
  804a48:	10bfe004 	addi	r2,r2,-128
  804a4c:	1000061e 	bne	r2,zero,804a68 <logic+0x47a4>
  804a50:	e0bffd17 	ldw	r2,-12(fp)
  804a54:	10802f83 	ldbu	r2,190(r2)
  804a58:	10803fcc 	andi	r2,r2,255
  804a5c:	1080201c 	xori	r2,r2,128
  804a60:	10bfe004 	addi	r2,r2,-128
  804a64:	10003226 	beq	r2,zero,804b30 <logic+0x486c>
  804a68:	e0bffd17 	ldw	r2,-12(fp)
  804a6c:	10804e83 	ldbu	r2,314(r2)
  804a70:	10803fcc 	andi	r2,r2,255
  804a74:	1080201c 	xori	r2,r2,128
  804a78:	10bfe004 	addi	r2,r2,-128
  804a7c:	1000061e 	bne	r2,zero,804a98 <logic+0x47d4>
  804a80:	e0bffd17 	ldw	r2,-12(fp)
  804a84:	10803143 	ldbu	r2,197(r2)
  804a88:	10803fcc 	andi	r2,r2,255
  804a8c:	1080201c 	xori	r2,r2,128
  804a90:	10bfe004 	addi	r2,r2,-128
  804a94:	10002626 	beq	r2,zero,804b30 <logic+0x486c>
  804a98:	e0bffd17 	ldw	r2,-12(fp)
  804a9c:	10803183 	ldbu	r2,198(r2)
  804aa0:	10803fcc 	andi	r2,r2,255
  804aa4:	1080201c 	xori	r2,r2,128
  804aa8:	10bfe004 	addi	r2,r2,-128
  804aac:	1000061e 	bne	r2,zero,804ac8 <logic+0x4804>
  804ab0:	e0bffd17 	ldw	r2,-12(fp)
  804ab4:	10803283 	ldbu	r2,202(r2)
  804ab8:	10803fcc 	andi	r2,r2,255
  804abc:	1080201c 	xori	r2,r2,128
  804ac0:	10bfe004 	addi	r2,r2,-128
  804ac4:	10001a26 	beq	r2,zero,804b30 <logic+0x486c>
  804ac8:	e0bffd17 	ldw	r2,-12(fp)
  804acc:	10802ac3 	ldbu	r2,171(r2)
  804ad0:	10803fcc 	andi	r2,r2,255
  804ad4:	1080201c 	xori	r2,r2,128
  804ad8:	10bfe004 	addi	r2,r2,-128
  804adc:	1000121e 	bne	r2,zero,804b28 <logic+0x4864>
  804ae0:	e0bffd17 	ldw	r2,-12(fp)
  804ae4:	10802f83 	ldbu	r2,190(r2)
  804ae8:	10803fcc 	andi	r2,r2,255
  804aec:	1080201c 	xori	r2,r2,128
  804af0:	10bfe004 	addi	r2,r2,-128
  804af4:	10000c1e 	bne	r2,zero,804b28 <logic+0x4864>
  804af8:	e0bffd17 	ldw	r2,-12(fp)
  804afc:	10803143 	ldbu	r2,197(r2)
  804b00:	10803fcc 	andi	r2,r2,255
  804b04:	1080201c 	xori	r2,r2,128
  804b08:	10bfe004 	addi	r2,r2,-128
  804b0c:	1000061e 	bne	r2,zero,804b28 <logic+0x4864>
  804b10:	e0bffd17 	ldw	r2,-12(fp)
  804b14:	10803283 	ldbu	r2,202(r2)
  804b18:	10803fcc 	andi	r2,r2,255
  804b1c:	1080201c 	xori	r2,r2,128
  804b20:	10bfe004 	addi	r2,r2,-128
  804b24:	10000226 	beq	r2,zero,804b30 <logic+0x486c>
  804b28:	00800044 	movi	r2,1
  804b2c:	00000106 	br	804b34 <logic+0x4870>
  804b30:	0005883a 	mov	r2,zero
  804b34:	1007883a 	mov	r3,r2
  804b38:	e0bffd17 	ldw	r2,-12(fp)
  804b3c:	10c031c5 	stb	r3,199(r2)
  d->_cg177 = d->_PaceMaker_local__Atrig9;
  804b40:	e0bffd17 	ldw	r2,-12(fp)
  804b44:	10c01103 	ldbu	r3,68(r2)
  804b48:	e0bffd17 	ldw	r2,-12(fp)
  804b4c:	10c04345 	stb	r3,269(r2)
  d->_g154_e1 = d->_pg169_e3;
  804b50:	e0bffd17 	ldw	r2,-12(fp)
  804b54:	10c05803 	ldbu	r3,352(r2)
  804b58:	e0bffd17 	ldw	r2,-12(fp)
  804b5c:	10c04e05 	stb	r3,312(r2)
  d->_cg149 = (d->VS || d->VP) && !d->ignore_VEvent;
  804b60:	e0bffd17 	ldw	r2,-12(fp)
  804b64:	10800443 	ldbu	r2,17(r2)
  804b68:	10803fcc 	andi	r2,r2,255
  804b6c:	1080201c 	xori	r2,r2,128
  804b70:	10bfe004 	addi	r2,r2,-128
  804b74:	1000061e 	bne	r2,zero,804b90 <logic+0x48cc>
  804b78:	e0bffd17 	ldw	r2,-12(fp)
  804b7c:	108004c3 	ldbu	r2,19(r2)
  804b80:	10803fcc 	andi	r2,r2,255
  804b84:	1080201c 	xori	r2,r2,128
  804b88:	10bfe004 	addi	r2,r2,-128
  804b8c:	10000826 	beq	r2,zero,804bb0 <logic+0x48ec>
  804b90:	e0bffd17 	ldw	r2,-12(fp)
  804b94:	10800543 	ldbu	r2,21(r2)
  804b98:	10803fcc 	andi	r2,r2,255
  804b9c:	1080201c 	xori	r2,r2,128
  804ba0:	10bfe004 	addi	r2,r2,-128
  804ba4:	1000021e 	bne	r2,zero,804bb0 <logic+0x48ec>
  804ba8:	00800044 	movi	r2,1
  804bac:	00000106 	br	804bb4 <logic+0x48f0>
  804bb0:	0005883a 	mov	r2,zero
  804bb4:	1007883a 	mov	r3,r2
  804bb8:	e0bffd17 	ldw	r2,-12(fp)
  804bbc:	10c04385 	stb	r3,270(r2)
  d->_g169_e3 = d->_GO || (d->_g173 && !d->_cg177) || (d->_g154_e1 && !d->_cg149);
  804bc0:	e0bffd17 	ldw	r2,-12(fp)
  804bc4:	10803643 	ldbu	r2,217(r2)
  804bc8:	10803fcc 	andi	r2,r2,255
  804bcc:	1080201c 	xori	r2,r2,128
  804bd0:	10bfe004 	addi	r2,r2,-128
  804bd4:	1000181e 	bne	r2,zero,804c38 <logic+0x4974>
  804bd8:	e0bffd17 	ldw	r2,-12(fp)
  804bdc:	108031c3 	ldbu	r2,199(r2)
  804be0:	10803fcc 	andi	r2,r2,255
  804be4:	1080201c 	xori	r2,r2,128
  804be8:	10bfe004 	addi	r2,r2,-128
  804bec:	10000626 	beq	r2,zero,804c08 <logic+0x4944>
  804bf0:	e0bffd17 	ldw	r2,-12(fp)
  804bf4:	10804343 	ldbu	r2,269(r2)
  804bf8:	10803fcc 	andi	r2,r2,255
  804bfc:	1080201c 	xori	r2,r2,128
  804c00:	10bfe004 	addi	r2,r2,-128
  804c04:	10000c26 	beq	r2,zero,804c38 <logic+0x4974>
  804c08:	e0bffd17 	ldw	r2,-12(fp)
  804c0c:	10804e03 	ldbu	r2,312(r2)
  804c10:	10803fcc 	andi	r2,r2,255
  804c14:	1080201c 	xori	r2,r2,128
  804c18:	10bfe004 	addi	r2,r2,-128
  804c1c:	10000826 	beq	r2,zero,804c40 <logic+0x497c>
  804c20:	e0bffd17 	ldw	r2,-12(fp)
  804c24:	10804383 	ldbu	r2,270(r2)
  804c28:	10803fcc 	andi	r2,r2,255
  804c2c:	1080201c 	xori	r2,r2,128
  804c30:	10bfe004 	addi	r2,r2,-128
  804c34:	1000021e 	bne	r2,zero,804c40 <logic+0x497c>
  804c38:	00800044 	movi	r2,1
  804c3c:	00000106 	br	804c44 <logic+0x4980>
  804c40:	0005883a 	mov	r2,zero
  804c44:	1007883a 	mov	r3,r2
  804c48:	e0bffd17 	ldw	r2,-12(fp)
  804c4c:	10c04e85 	stb	r3,314(r2)
  d->_g154 = (d->_g154_e1 && d->_cg149) || (d->_g173 && d->_cg177);
  804c50:	e0bffd17 	ldw	r2,-12(fp)
  804c54:	10804e03 	ldbu	r2,312(r2)
  804c58:	10803fcc 	andi	r2,r2,255
  804c5c:	1080201c 	xori	r2,r2,128
  804c60:	10bfe004 	addi	r2,r2,-128
  804c64:	10000626 	beq	r2,zero,804c80 <logic+0x49bc>
  804c68:	e0bffd17 	ldw	r2,-12(fp)
  804c6c:	10804383 	ldbu	r2,270(r2)
  804c70:	10803fcc 	andi	r2,r2,255
  804c74:	1080201c 	xori	r2,r2,128
  804c78:	10bfe004 	addi	r2,r2,-128
  804c7c:	10000c1e 	bne	r2,zero,804cb0 <logic+0x49ec>
  804c80:	e0bffd17 	ldw	r2,-12(fp)
  804c84:	108031c3 	ldbu	r2,199(r2)
  804c88:	10803fcc 	andi	r2,r2,255
  804c8c:	1080201c 	xori	r2,r2,128
  804c90:	10bfe004 	addi	r2,r2,-128
  804c94:	10000826 	beq	r2,zero,804cb8 <logic+0x49f4>
  804c98:	e0bffd17 	ldw	r2,-12(fp)
  804c9c:	10804343 	ldbu	r2,269(r2)
  804ca0:	10803fcc 	andi	r2,r2,255
  804ca4:	1080201c 	xori	r2,r2,128
  804ca8:	10bfe004 	addi	r2,r2,-128
  804cac:	10000226 	beq	r2,zero,804cb8 <logic+0x49f4>
  804cb0:	00800044 	movi	r2,1
  804cb4:	00000106 	br	804cbc <logic+0x49f8>
  804cb8:	0005883a 	mov	r2,zero
  804cbc:	1007883a 	mov	r3,r2
  804cc0:	e0bffd17 	ldw	r2,-12(fp)
  804cc4:	10c02ec5 	stb	r3,187(r2)
  if (d->_g154) {
  804cc8:	e0bffd17 	ldw	r2,-12(fp)
  804ccc:	10802ec3 	ldbu	r2,187(r2)
  804cd0:	10803fcc 	andi	r2,r2,255
  804cd4:	1080201c 	xori	r2,r2,128
  804cd8:	10bfe004 	addi	r2,r2,-128
  804cdc:	10000726 	beq	r2,zero,804cfc <logic+0x4a38>
    d->_PaceMaker_local_uri_clk = 0.0;
  804ce0:	e0bffd17 	ldw	r2,-12(fp)
  804ce4:	10001215 	stw	zero,72(r2)
  804ce8:	10001315 	stw	zero,76(r2)
    d->_PaceMaker_local__Atrig9 = 0;
  804cec:	e0bffd17 	ldw	r2,-12(fp)
  804cf0:	10001105 	stb	zero,68(r2)
    d->_PaceMaker_local__Atrig10 = 0;
  804cf4:	e0bffd17 	ldw	r2,-12(fp)
  804cf8:	10001145 	stb	zero,69(r2)
  }
  d->_cg151 = d->_PaceMaker_local__Atrig9 || d->_PaceMaker_local__Atrig10;
  804cfc:	e0bffd17 	ldw	r2,-12(fp)
  804d00:	10801103 	ldbu	r2,68(r2)
  804d04:	10803fcc 	andi	r2,r2,255
  804d08:	1080201c 	xori	r2,r2,128
  804d0c:	10bfe004 	addi	r2,r2,-128
  804d10:	1000061e 	bne	r2,zero,804d2c <logic+0x4a68>
  804d14:	e0bffd17 	ldw	r2,-12(fp)
  804d18:	10801143 	ldbu	r2,69(r2)
  804d1c:	10803fcc 	andi	r2,r2,255
  804d20:	1080201c 	xori	r2,r2,128
  804d24:	10bfe004 	addi	r2,r2,-128
  804d28:	10000226 	beq	r2,zero,804d34 <logic+0x4a70>
  804d2c:	00800044 	movi	r2,1
  804d30:	00000106 	br	804d38 <logic+0x4a74>
  804d34:	0005883a 	mov	r2,zero
  804d38:	1007883a 	mov	r3,r2
  804d3c:	e0bffd17 	ldw	r2,-12(fp)
  804d40:	10c043c5 	stb	r3,271(r2)
  d->_g169 = (d->_g154 && !d->_cg151) || (d->_g153 && !d->_cg153);
  804d44:	e0bffd17 	ldw	r2,-12(fp)
  804d48:	10802ec3 	ldbu	r2,187(r2)
  804d4c:	10803fcc 	andi	r2,r2,255
  804d50:	1080201c 	xori	r2,r2,128
  804d54:	10bfe004 	addi	r2,r2,-128
  804d58:	10000626 	beq	r2,zero,804d74 <logic+0x4ab0>
  804d5c:	e0bffd17 	ldw	r2,-12(fp)
  804d60:	108043c3 	ldbu	r2,271(r2)
  804d64:	10803fcc 	andi	r2,r2,255
  804d68:	1080201c 	xori	r2,r2,128
  804d6c:	10bfe004 	addi	r2,r2,-128
  804d70:	10000c26 	beq	r2,zero,804da4 <logic+0x4ae0>
  804d74:	e0bffd17 	ldw	r2,-12(fp)
  804d78:	10802e83 	ldbu	r2,186(r2)
  804d7c:	10803fcc 	andi	r2,r2,255
  804d80:	1080201c 	xori	r2,r2,128
  804d84:	10bfe004 	addi	r2,r2,-128
  804d88:	10000826 	beq	r2,zero,804dac <logic+0x4ae8>
  804d8c:	e0bffd17 	ldw	r2,-12(fp)
  804d90:	10804403 	ldbu	r2,272(r2)
  804d94:	10803fcc 	andi	r2,r2,255
  804d98:	1080201c 	xori	r2,r2,128
  804d9c:	10bfe004 	addi	r2,r2,-128
  804da0:	1000021e 	bne	r2,zero,804dac <logic+0x4ae8>
  804da4:	00800044 	movi	r2,1
  804da8:	00000106 	br	804db0 <logic+0x4aec>
  804dac:	0005883a 	mov	r2,zero
  804db0:	1007883a 	mov	r3,r2
  804db4:	e0bffd17 	ldw	r2,-12(fp)
  804db8:	10c03145 	stb	r3,197(r2)
  d->_cg155 = d->_PaceMaker_local_uri_clk < URI_VALUE - 1;
  804dbc:	e13ffd17 	ldw	r4,-12(fp)
  804dc0:	20801217 	ldw	r2,72(r4)
  804dc4:	20c01317 	ldw	r3,76(r4)
  804dc8:	04000044 	movi	r16,1
  804dcc:	000d883a 	mov	r6,zero
  804dd0:	01d02334 	movhi	r7,16524
  804dd4:	39c60004 	addi	r7,r7,6144
  804dd8:	1009883a 	mov	r4,r2
  804ddc:	180b883a 	mov	r5,r3
  804de0:	0806f2c0 	call	806f2c <__ledf2>
  804de4:	10000116 	blt	r2,zero,804dec <logic+0x4b28>
  804de8:	0021883a 	mov	r16,zero
  804dec:	8007883a 	mov	r3,r16
  804df0:	e0bffd17 	ldw	r2,-12(fp)
  804df4:	10c04445 	stb	r3,273(r2)
  d->_g174_e4 = d->_g154 && d->_cg155;
  804df8:	e0bffd17 	ldw	r2,-12(fp)
  804dfc:	10802ec3 	ldbu	r2,187(r2)
  804e00:	10803fcc 	andi	r2,r2,255
  804e04:	1080201c 	xori	r2,r2,128
  804e08:	10bfe004 	addi	r2,r2,-128
  804e0c:	10000826 	beq	r2,zero,804e30 <logic+0x4b6c>
  804e10:	e0bffd17 	ldw	r2,-12(fp)
  804e14:	10804443 	ldbu	r2,273(r2)
  804e18:	10803fcc 	andi	r2,r2,255
  804e1c:	1080201c 	xori	r2,r2,128
  804e20:	10bfe004 	addi	r2,r2,-128
  804e24:	10000226 	beq	r2,zero,804e30 <logic+0x4b6c>
  804e28:	00800044 	movi	r2,1
  804e2c:	00000106 	br	804e34 <logic+0x4b70>
  804e30:	0005883a 	mov	r2,zero
  804e34:	1007883a 	mov	r3,r2
  804e38:	e0bffd17 	ldw	r2,-12(fp)
  804e3c:	10c04ec5 	stb	r3,315(r2)
  if (d->_g174_e4) {
  804e40:	e0bffd17 	ldw	r2,-12(fp)
  804e44:	10804ec3 	ldbu	r2,315(r2)
  804e48:	10803fcc 	andi	r2,r2,255
  804e4c:	1080201c 	xori	r2,r2,128
  804e50:	10bfe004 	addi	r2,r2,-128
  804e54:	10002a26 	beq	r2,zero,804f00 <logic+0x4c3c>
    d->sleepT = (d->sleepT < (URI_VALUE - 1 - d->_PaceMaker_local_uri_clk)) ? d->sleepT : (URI_VALUE - 1 - d->_PaceMaker_local_uri_clk);
  804e58:	e0bffd17 	ldw	r2,-12(fp)
  804e5c:	14000217 	ldw	r16,8(r2)
  804e60:	14400317 	ldw	r17,12(r2)
  804e64:	e13ffd17 	ldw	r4,-12(fp)
  804e68:	20801217 	ldw	r2,72(r4)
  804e6c:	20c01317 	ldw	r3,76(r4)
  804e70:	100d883a 	mov	r6,r2
  804e74:	180f883a 	mov	r7,r3
  804e78:	0009883a 	mov	r4,zero
  804e7c:	01502334 	movhi	r5,16524
  804e80:	29460004 	addi	r5,r5,6144
  804e84:	08070200 	call	807020 <__subdf3>
  804e88:	1009883a 	mov	r4,r2
  804e8c:	180b883a 	mov	r5,r3
  804e90:	2005883a 	mov	r2,r4
  804e94:	2807883a 	mov	r3,r5
  804e98:	100d883a 	mov	r6,r2
  804e9c:	180f883a 	mov	r7,r3
  804ea0:	8009883a 	mov	r4,r16
  804ea4:	880b883a 	mov	r5,r17
  804ea8:	0806f2c0 	call	806f2c <__ledf2>
  804eac:	1000040e 	bge	r2,zero,804ec0 <logic+0x4bfc>
  804eb0:	e13ffd17 	ldw	r4,-12(fp)
  804eb4:	20800217 	ldw	r2,8(r4)
  804eb8:	20c00317 	ldw	r3,12(r4)
  804ebc:	00000d06 	br	804ef4 <logic+0x4c30>
  804ec0:	e13ffd17 	ldw	r4,-12(fp)
  804ec4:	20801217 	ldw	r2,72(r4)
  804ec8:	20c01317 	ldw	r3,76(r4)
  804ecc:	100d883a 	mov	r6,r2
  804ed0:	180f883a 	mov	r7,r3
  804ed4:	0009883a 	mov	r4,zero
  804ed8:	01502334 	movhi	r5,16524
  804edc:	29460004 	addi	r5,r5,6144
  804ee0:	08070200 	call	807020 <__subdf3>
  804ee4:	1009883a 	mov	r4,r2
  804ee8:	180b883a 	mov	r5,r3
  804eec:	2005883a 	mov	r2,r4
  804ef0:	2807883a 	mov	r3,r5
  804ef4:	e13ffd17 	ldw	r4,-12(fp)
  804ef8:	20800215 	stw	r2,8(r4)
  804efc:	20c00315 	stw	r3,12(r4)
  }
  d->_cg156 = d->_PaceMaker_local__Atrig9 || d->_PaceMaker_local__Atrig10;
  804f00:	e0bffd17 	ldw	r2,-12(fp)
  804f04:	10801103 	ldbu	r2,68(r2)
  804f08:	10803fcc 	andi	r2,r2,255
  804f0c:	1080201c 	xori	r2,r2,128
  804f10:	10bfe004 	addi	r2,r2,-128
  804f14:	1000061e 	bne	r2,zero,804f30 <logic+0x4c6c>
  804f18:	e0bffd17 	ldw	r2,-12(fp)
  804f1c:	10801143 	ldbu	r2,69(r2)
  804f20:	10803fcc 	andi	r2,r2,255
  804f24:	1080201c 	xori	r2,r2,128
  804f28:	10bfe004 	addi	r2,r2,-128
  804f2c:	10000226 	beq	r2,zero,804f38 <logic+0x4c74>
  804f30:	00800044 	movi	r2,1
  804f34:	00000106 	br	804f3c <logic+0x4c78>
  804f38:	0005883a 	mov	r2,zero
  804f3c:	1007883a 	mov	r3,r2
  804f40:	e0bffd17 	ldw	r2,-12(fp)
  804f44:	10c04485 	stb	r3,274(r2)
  d->_g161_e2 = (d->_g174_e4 && !d->_cg156) || (d->_g164 && !d->_cg160);
  804f48:	e0bffd17 	ldw	r2,-12(fp)
  804f4c:	10804ec3 	ldbu	r2,315(r2)
  804f50:	10803fcc 	andi	r2,r2,255
  804f54:	1080201c 	xori	r2,r2,128
  804f58:	10bfe004 	addi	r2,r2,-128
  804f5c:	10000626 	beq	r2,zero,804f78 <logic+0x4cb4>
  804f60:	e0bffd17 	ldw	r2,-12(fp)
  804f64:	10804483 	ldbu	r2,274(r2)
  804f68:	10803fcc 	andi	r2,r2,255
  804f6c:	1080201c 	xori	r2,r2,128
  804f70:	10bfe004 	addi	r2,r2,-128
  804f74:	10000c26 	beq	r2,zero,804fa8 <logic+0x4ce4>
  804f78:	e0bffd17 	ldw	r2,-12(fp)
  804f7c:	10803083 	ldbu	r2,194(r2)
  804f80:	10803fcc 	andi	r2,r2,255
  804f84:	1080201c 	xori	r2,r2,128
  804f88:	10bfe004 	addi	r2,r2,-128
  804f8c:	10000826 	beq	r2,zero,804fb0 <logic+0x4cec>
  804f90:	e0bffd17 	ldw	r2,-12(fp)
  804f94:	108044c3 	ldbu	r2,275(r2)
  804f98:	10803fcc 	andi	r2,r2,255
  804f9c:	1080201c 	xori	r2,r2,128
  804fa0:	10bfe004 	addi	r2,r2,-128
  804fa4:	1000021e 	bne	r2,zero,804fb0 <logic+0x4cec>
  804fa8:	00800044 	movi	r2,1
  804fac:	00000106 	br	804fb4 <logic+0x4cf0>
  804fb0:	0005883a 	mov	r2,zero
  804fb4:	1007883a 	mov	r3,r2
  804fb8:	e0bffd17 	ldw	r2,-12(fp)
  804fbc:	10c04e45 	stb	r3,313(r2)
  d->_g174 = d->_g154 && !d->_cg155;
  804fc0:	e0bffd17 	ldw	r2,-12(fp)
  804fc4:	10802ec3 	ldbu	r2,187(r2)
  804fc8:	10803fcc 	andi	r2,r2,255
  804fcc:	1080201c 	xori	r2,r2,128
  804fd0:	10bfe004 	addi	r2,r2,-128
  804fd4:	10000826 	beq	r2,zero,804ff8 <logic+0x4d34>
  804fd8:	e0bffd17 	ldw	r2,-12(fp)
  804fdc:	10804443 	ldbu	r2,273(r2)
  804fe0:	10803fcc 	andi	r2,r2,255
  804fe4:	1080201c 	xori	r2,r2,128
  804fe8:	10bfe004 	addi	r2,r2,-128
  804fec:	1000021e 	bne	r2,zero,804ff8 <logic+0x4d34>
  804ff0:	00800044 	movi	r2,1
  804ff4:	00000106 	br	804ffc <logic+0x4d38>
  804ff8:	0005883a 	mov	r2,zero
  804ffc:	1007883a 	mov	r3,r2
  805000:	e0bffd17 	ldw	r2,-12(fp)
  805004:	10c03205 	stb	r3,200(r2)
  d->_cg165 = d->_PaceMaker_local__Atrig9 || d->_PaceMaker_local__Atrig10;
  805008:	e0bffd17 	ldw	r2,-12(fp)
  80500c:	10801103 	ldbu	r2,68(r2)
  805010:	10803fcc 	andi	r2,r2,255
  805014:	1080201c 	xori	r2,r2,128
  805018:	10bfe004 	addi	r2,r2,-128
  80501c:	1000061e 	bne	r2,zero,805038 <logic+0x4d74>
  805020:	e0bffd17 	ldw	r2,-12(fp)
  805024:	10801143 	ldbu	r2,69(r2)
  805028:	10803fcc 	andi	r2,r2,255
  80502c:	1080201c 	xori	r2,r2,128
  805030:	10bfe004 	addi	r2,r2,-128
  805034:	10000226 	beq	r2,zero,805040 <logic+0x4d7c>
  805038:	00800044 	movi	r2,1
  80503c:	00000106 	br	805044 <logic+0x4d80>
  805040:	0005883a 	mov	r2,zero
  805044:	1007883a 	mov	r3,r2
  805048:	e0bffd17 	ldw	r2,-12(fp)
  80504c:	10c04585 	stb	r3,278(r2)
  d->_g161 = (d->_g158 && !d->_cg162) || (d->_g174 && !d->_cg165);
  805050:	e0bffd17 	ldw	r2,-12(fp)
  805054:	10802f43 	ldbu	r2,189(r2)
  805058:	10803fcc 	andi	r2,r2,255
  80505c:	1080201c 	xori	r2,r2,128
  805060:	10bfe004 	addi	r2,r2,-128
  805064:	10000626 	beq	r2,zero,805080 <logic+0x4dbc>
  805068:	e0bffd17 	ldw	r2,-12(fp)
  80506c:	10804543 	ldbu	r2,277(r2)
  805070:	10803fcc 	andi	r2,r2,255
  805074:	1080201c 	xori	r2,r2,128
  805078:	10bfe004 	addi	r2,r2,-128
  80507c:	10000c26 	beq	r2,zero,8050b0 <logic+0x4dec>
  805080:	e0bffd17 	ldw	r2,-12(fp)
  805084:	10803203 	ldbu	r2,200(r2)
  805088:	10803fcc 	andi	r2,r2,255
  80508c:	1080201c 	xori	r2,r2,128
  805090:	10bfe004 	addi	r2,r2,-128
  805094:	10000826 	beq	r2,zero,8050b8 <logic+0x4df4>
  805098:	e0bffd17 	ldw	r2,-12(fp)
  80509c:	10804583 	ldbu	r2,278(r2)
  8050a0:	10803fcc 	andi	r2,r2,255
  8050a4:	1080201c 	xori	r2,r2,128
  8050a8:	10bfe004 	addi	r2,r2,-128
  8050ac:	1000021e 	bne	r2,zero,8050b8 <logic+0x4df4>
  8050b0:	00800044 	movi	r2,1
  8050b4:	00000106 	br	8050bc <logic+0x4df8>
  8050b8:	0005883a 	mov	r2,zero
  8050bc:	1007883a 	mov	r3,r2
  8050c0:	e0bffd17 	ldw	r2,-12(fp)
  8050c4:	10c03005 	stb	r3,192(r2)
  d->_cg166 = d->_PaceMaker_local__Atrig9 || d->_PaceMaker_local__Atrig10;
  8050c8:	e0bffd17 	ldw	r2,-12(fp)
  8050cc:	10801103 	ldbu	r2,68(r2)
  8050d0:	10803fcc 	andi	r2,r2,255
  8050d4:	1080201c 	xori	r2,r2,128
  8050d8:	10bfe004 	addi	r2,r2,-128
  8050dc:	1000061e 	bne	r2,zero,8050f8 <logic+0x4e34>
  8050e0:	e0bffd17 	ldw	r2,-12(fp)
  8050e4:	10801143 	ldbu	r2,69(r2)
  8050e8:	10803fcc 	andi	r2,r2,255
  8050ec:	1080201c 	xori	r2,r2,128
  8050f0:	10bfe004 	addi	r2,r2,-128
  8050f4:	10000226 	beq	r2,zero,805100 <logic+0x4e3c>
  8050f8:	00800044 	movi	r2,1
  8050fc:	00000106 	br	805104 <logic+0x4e40>
  805100:	0005883a 	mov	r2,zero
  805104:	1007883a 	mov	r3,r2
  805108:	e0bffd17 	ldw	r2,-12(fp)
  80510c:	10c045c5 	stb	r3,279(r2)
  d->_g149 = (d->_g154 && !d->_cg166) || (d->_g115 && !d->_cg168);
  805110:	e0bffd17 	ldw	r2,-12(fp)
  805114:	10802ec3 	ldbu	r2,187(r2)
  805118:	10803fcc 	andi	r2,r2,255
  80511c:	1080201c 	xori	r2,r2,128
  805120:	10bfe004 	addi	r2,r2,-128
  805124:	10000626 	beq	r2,zero,805140 <logic+0x4e7c>
  805128:	e0bffd17 	ldw	r2,-12(fp)
  80512c:	108045c3 	ldbu	r2,279(r2)
  805130:	10803fcc 	andi	r2,r2,255
  805134:	1080201c 	xori	r2,r2,128
  805138:	10bfe004 	addi	r2,r2,-128
  80513c:	10000c26 	beq	r2,zero,805170 <logic+0x4eac>
  805140:	e0bffd17 	ldw	r2,-12(fp)
  805144:	10802883 	ldbu	r2,162(r2)
  805148:	10803fcc 	andi	r2,r2,255
  80514c:	1080201c 	xori	r2,r2,128
  805150:	10bfe004 	addi	r2,r2,-128
  805154:	10000826 	beq	r2,zero,805178 <logic+0x4eb4>
  805158:	e0bffd17 	ldw	r2,-12(fp)
  80515c:	10804603 	ldbu	r2,280(r2)
  805160:	10803fcc 	andi	r2,r2,255
  805164:	1080201c 	xori	r2,r2,128
  805168:	10bfe004 	addi	r2,r2,-128
  80516c:	1000021e 	bne	r2,zero,805178 <logic+0x4eb4>
  805170:	00800044 	movi	r2,1
  805174:	00000106 	br	80517c <logic+0x4eb8>
  805178:	0005883a 	mov	r2,zero
  80517c:	1007883a 	mov	r3,r2
  805180:	e0bffd17 	ldw	r2,-12(fp)
  805184:	10c02e05 	stb	r3,184(r2)
  d->_g177 = d->_g154 || (d->_g118 && !d->_cg175);
  805188:	e0bffd17 	ldw	r2,-12(fp)
  80518c:	10802ec3 	ldbu	r2,187(r2)
  805190:	10803fcc 	andi	r2,r2,255
  805194:	1080201c 	xori	r2,r2,128
  805198:	10bfe004 	addi	r2,r2,-128
  80519c:	10000c1e 	bne	r2,zero,8051d0 <logic+0x4f0c>
  8051a0:	e0bffd17 	ldw	r2,-12(fp)
  8051a4:	10802903 	ldbu	r2,164(r2)
  8051a8:	10803fcc 	andi	r2,r2,255
  8051ac:	1080201c 	xori	r2,r2,128
  8051b0:	10bfe004 	addi	r2,r2,-128
  8051b4:	10000826 	beq	r2,zero,8051d8 <logic+0x4f14>
  8051b8:	e0bffd17 	ldw	r2,-12(fp)
  8051bc:	10804643 	ldbu	r2,281(r2)
  8051c0:	10803fcc 	andi	r2,r2,255
  8051c4:	1080201c 	xori	r2,r2,128
  8051c8:	10bfe004 	addi	r2,r2,-128
  8051cc:	1000021e 	bne	r2,zero,8051d8 <logic+0x4f14>
  8051d0:	00800044 	movi	r2,1
  8051d4:	00000106 	br	8051dc <logic+0x4f18>
  8051d8:	0005883a 	mov	r2,zero
  8051dc:	1007883a 	mov	r3,r2
  8051e0:	e0bffd17 	ldw	r2,-12(fp)
  8051e4:	10c032c5 	stb	r3,203(r2)
  d->_g153 = !d->_g185;
  8051e8:	e0bffd17 	ldw	r2,-12(fp)
  8051ec:	10803343 	ldbu	r2,205(r2)
  8051f0:	10803fcc 	andi	r2,r2,255
  8051f4:	1080201c 	xori	r2,r2,128
  8051f8:	10bfe004 	addi	r2,r2,-128
  8051fc:	1005003a 	cmpeq	r2,r2,zero
  805200:	1007883a 	mov	r3,r2
  805204:	e0bffd17 	ldw	r2,-12(fp)
  805208:	10c02e85 	stb	r3,186(r2)
  d->_g156 = d->_pg181;
  80520c:	e0bffd17 	ldw	r2,-12(fp)
  805210:	10c05843 	ldbu	r3,353(r2)
  805214:	e0bffd17 	ldw	r2,-12(fp)
  805218:	10c02f05 	stb	r3,188(r2)
  if (d->_g156) {
  80521c:	e0bffd17 	ldw	r2,-12(fp)
  805220:	10802f03 	ldbu	r2,188(r2)
  805224:	10803fcc 	andi	r2,r2,255
  805228:	1080201c 	xori	r2,r2,128
  80522c:	10bfe004 	addi	r2,r2,-128
  805230:	10001226 	beq	r2,zero,80527c <logic+0x4fb8>
    d->_PaceMaker_local_lri_clk += d->deltaT;
  805234:	e13ffd17 	ldw	r4,-12(fp)
  805238:	20801417 	ldw	r2,80(r4)
  80523c:	20c01517 	ldw	r3,84(r4)
  805240:	e1bffd17 	ldw	r6,-12(fp)
  805244:	31000017 	ldw	r4,0(r6)
  805248:	31400117 	ldw	r5,4(r6)
  80524c:	200d883a 	mov	r6,r4
  805250:	280f883a 	mov	r7,r5
  805254:	1009883a 	mov	r4,r2
  805258:	180b883a 	mov	r5,r3
  80525c:	08065a40 	call	8065a4 <__adddf3>
  805260:	1009883a 	mov	r4,r2
  805264:	180b883a 	mov	r5,r3
  805268:	2005883a 	mov	r2,r4
  80526c:	2807883a 	mov	r3,r5
  805270:	e13ffd17 	ldw	r4,-12(fp)
  805274:	20801415 	stw	r2,80(r4)
  805278:	20c01515 	stw	r3,84(r4)
  }
  d->_g160 = d->_pg209;
  80527c:	e0bffd17 	ldw	r2,-12(fp)
  805280:	10c05883 	ldbu	r3,354(r2)
  805284:	e0bffd17 	ldw	r2,-12(fp)
  805288:	10c02fc5 	stb	r3,191(r2)
  d->_cg204 = d->_PaceMaker_local_lri_clk >= LRI_VALUE - 1 && !(d->VS || d->VP);
  80528c:	e13ffd17 	ldw	r4,-12(fp)
  805290:	20801417 	ldw	r2,80(r4)
  805294:	20c01517 	ldw	r3,84(r4)
  805298:	000d883a 	mov	r6,zero
  80529c:	01d023b4 	movhi	r7,16526
  8052a0:	39ea0004 	addi	r7,r7,-22528
  8052a4:	1009883a 	mov	r4,r2
  8052a8:	180b883a 	mov	r5,r3
  8052ac:	0806e500 	call	806e50 <__gedf2>
  8052b0:	10000e16 	blt	r2,zero,8052ec <logic+0x5028>
  8052b4:	e0bffd17 	ldw	r2,-12(fp)
  8052b8:	10800443 	ldbu	r2,17(r2)
  8052bc:	10803fcc 	andi	r2,r2,255
  8052c0:	1080201c 	xori	r2,r2,128
  8052c4:	10bfe004 	addi	r2,r2,-128
  8052c8:	1000081e 	bne	r2,zero,8052ec <logic+0x5028>
  8052cc:	e0bffd17 	ldw	r2,-12(fp)
  8052d0:	108004c3 	ldbu	r2,19(r2)
  8052d4:	10803fcc 	andi	r2,r2,255
  8052d8:	1080201c 	xori	r2,r2,128
  8052dc:	10bfe004 	addi	r2,r2,-128
  8052e0:	1000021e 	bne	r2,zero,8052ec <logic+0x5028>
  8052e4:	00800044 	movi	r2,1
  8052e8:	00000106 	br	8052f0 <logic+0x502c>
  8052ec:	0005883a 	mov	r2,zero
  8052f0:	1007883a 	mov	r3,r2
  8052f4:	e0bffd17 	ldw	r2,-12(fp)
  8052f8:	10c04a05 	stb	r3,296(r2)
  d->_g165 = d->_g160 && d->_cg204;
  8052fc:	e0bffd17 	ldw	r2,-12(fp)
  805300:	10802fc3 	ldbu	r2,191(r2)
  805304:	10803fcc 	andi	r2,r2,255
  805308:	1080201c 	xori	r2,r2,128
  80530c:	10bfe004 	addi	r2,r2,-128
  805310:	10000826 	beq	r2,zero,805334 <logic+0x5070>
  805314:	e0bffd17 	ldw	r2,-12(fp)
  805318:	10804a03 	ldbu	r2,296(r2)
  80531c:	10803fcc 	andi	r2,r2,255
  805320:	1080201c 	xori	r2,r2,128
  805324:	10bfe004 	addi	r2,r2,-128
  805328:	10000226 	beq	r2,zero,805334 <logic+0x5070>
  80532c:	00800044 	movi	r2,1
  805330:	00000106 	br	805338 <logic+0x5074>
  805334:	0005883a 	mov	r2,zero
  805338:	1007883a 	mov	r3,r2
  80533c:	e0bffd17 	ldw	r2,-12(fp)
  805340:	10c030c5 	stb	r3,195(r2)
  if (d->_g165) {
  805344:	e0bffd17 	ldw	r2,-12(fp)
  805348:	108030c3 	ldbu	r2,195(r2)
  80534c:	10803fcc 	andi	r2,r2,255
  805350:	1080201c 	xori	r2,r2,128
  805354:	10bfe004 	addi	r2,r2,-128
  805358:	10000326 	beq	r2,zero,805368 <logic+0x50a4>
    d->_PaceMaker_local__Atrig11 = 1;
  80535c:	e0bffd17 	ldw	r2,-12(fp)
  805360:	00c00044 	movi	r3,1
  805364:	10c01185 	stb	r3,70(r2)
  }
  d->_g162 = d->_g160 && !d->_cg204;
  805368:	e0bffd17 	ldw	r2,-12(fp)
  80536c:	10802fc3 	ldbu	r2,191(r2)
  805370:	10803fcc 	andi	r2,r2,255
  805374:	1080201c 	xori	r2,r2,128
  805378:	10bfe004 	addi	r2,r2,-128
  80537c:	10000826 	beq	r2,zero,8053a0 <logic+0x50dc>
  805380:	e0bffd17 	ldw	r2,-12(fp)
  805384:	10804a03 	ldbu	r2,296(r2)
  805388:	10803fcc 	andi	r2,r2,255
  80538c:	1080201c 	xori	r2,r2,128
  805390:	10bfe004 	addi	r2,r2,-128
  805394:	1000021e 	bne	r2,zero,8053a0 <logic+0x50dc>
  805398:	00800044 	movi	r2,1
  80539c:	00000106 	br	8053a4 <logic+0x50e0>
  8053a0:	0005883a 	mov	r2,zero
  8053a4:	1007883a 	mov	r3,r2
  8053a8:	e0bffd17 	ldw	r2,-12(fp)
  8053ac:	10c03045 	stb	r3,193(r2)
  d->_cg207 = (d->VS || d->VP) && !d->ignore_VEvent;
  8053b0:	e0bffd17 	ldw	r2,-12(fp)
  8053b4:	10800443 	ldbu	r2,17(r2)
  8053b8:	10803fcc 	andi	r2,r2,255
  8053bc:	1080201c 	xori	r2,r2,128
  8053c0:	10bfe004 	addi	r2,r2,-128
  8053c4:	1000061e 	bne	r2,zero,8053e0 <logic+0x511c>
  8053c8:	e0bffd17 	ldw	r2,-12(fp)
  8053cc:	108004c3 	ldbu	r2,19(r2)
  8053d0:	10803fcc 	andi	r2,r2,255
  8053d4:	1080201c 	xori	r2,r2,128
  8053d8:	10bfe004 	addi	r2,r2,-128
  8053dc:	10000826 	beq	r2,zero,805400 <logic+0x513c>
  8053e0:	e0bffd17 	ldw	r2,-12(fp)
  8053e4:	10800543 	ldbu	r2,21(r2)
  8053e8:	10803fcc 	andi	r2,r2,255
  8053ec:	1080201c 	xori	r2,r2,128
  8053f0:	10bfe004 	addi	r2,r2,-128
  8053f4:	1000021e 	bne	r2,zero,805400 <logic+0x513c>
  8053f8:	00800044 	movi	r2,1
  8053fc:	00000106 	br	805404 <logic+0x5140>
  805400:	0005883a 	mov	r2,zero
  805404:	1007883a 	mov	r3,r2
  805408:	e0bffd17 	ldw	r2,-12(fp)
  80540c:	10c049c5 	stb	r3,295(r2)
  d->_g168 = d->_g162 && d->_cg207;
  805410:	e0bffd17 	ldw	r2,-12(fp)
  805414:	10803043 	ldbu	r2,193(r2)
  805418:	10803fcc 	andi	r2,r2,255
  80541c:	1080201c 	xori	r2,r2,128
  805420:	10bfe004 	addi	r2,r2,-128
  805424:	10000826 	beq	r2,zero,805448 <logic+0x5184>
  805428:	e0bffd17 	ldw	r2,-12(fp)
  80542c:	108049c3 	ldbu	r2,295(r2)
  805430:	10803fcc 	andi	r2,r2,255
  805434:	1080201c 	xori	r2,r2,128
  805438:	10bfe004 	addi	r2,r2,-128
  80543c:	10000226 	beq	r2,zero,805448 <logic+0x5184>
  805440:	00800044 	movi	r2,1
  805444:	00000106 	br	80544c <logic+0x5188>
  805448:	0005883a 	mov	r2,zero
  80544c:	1007883a 	mov	r3,r2
  805450:	e0bffd17 	ldw	r2,-12(fp)
  805454:	10c03105 	stb	r3,196(r2)
  if (d->_g168) {
  805458:	e0bffd17 	ldw	r2,-12(fp)
  80545c:	10803103 	ldbu	r2,196(r2)
  805460:	10803fcc 	andi	r2,r2,255
  805464:	1080201c 	xori	r2,r2,128
  805468:	10bfe004 	addi	r2,r2,-128
  80546c:	10000326 	beq	r2,zero,80547c <logic+0x51b8>
    d->_PaceMaker_local__Atrig12 = 1;
  805470:	e0bffd17 	ldw	r2,-12(fp)
  805474:	00c00044 	movi	r3,1
  805478:	10c011c5 	stb	r3,71(r2)
  }
  d->_cg185 = d->_PaceMaker_local__Atrig11 || d->_PaceMaker_local__Atrig12;
  80547c:	e0bffd17 	ldw	r2,-12(fp)
  805480:	10801183 	ldbu	r2,70(r2)
  805484:	10803fcc 	andi	r2,r2,255
  805488:	1080201c 	xori	r2,r2,128
  80548c:	10bfe004 	addi	r2,r2,-128
  805490:	1000061e 	bne	r2,zero,8054ac <logic+0x51e8>
  805494:	e0bffd17 	ldw	r2,-12(fp)
  805498:	108011c3 	ldbu	r2,71(r2)
  80549c:	10803fcc 	andi	r2,r2,255
  8054a0:	1080201c 	xori	r2,r2,128
  8054a4:	10bfe004 	addi	r2,r2,-128
  8054a8:	10000226 	beq	r2,zero,8054b4 <logic+0x51f0>
  8054ac:	00800044 	movi	r2,1
  8054b0:	00000106 	br	8054b8 <logic+0x51f4>
  8054b4:	0005883a 	mov	r2,zero
  8054b8:	1007883a 	mov	r3,r2
  8054bc:	e0bffd17 	ldw	r2,-12(fp)
  8054c0:	10c04785 	stb	r3,286(r2)
  d->_g175 = d->_g185 && d->_cg185;
  8054c4:	e0bffd17 	ldw	r2,-12(fp)
  8054c8:	10803343 	ldbu	r2,205(r2)
  8054cc:	10803fcc 	andi	r2,r2,255
  8054d0:	1080201c 	xori	r2,r2,128
  8054d4:	10bfe004 	addi	r2,r2,-128
  8054d8:	10000826 	beq	r2,zero,8054fc <logic+0x5238>
  8054dc:	e0bffd17 	ldw	r2,-12(fp)
  8054e0:	10804783 	ldbu	r2,286(r2)
  8054e4:	10803fcc 	andi	r2,r2,255
  8054e8:	1080201c 	xori	r2,r2,128
  8054ec:	10bfe004 	addi	r2,r2,-128
  8054f0:	10000226 	beq	r2,zero,8054fc <logic+0x5238>
  8054f4:	00800044 	movi	r2,1
  8054f8:	00000106 	br	805500 <logic+0x523c>
  8054fc:	0005883a 	mov	r2,zero
  805500:	1007883a 	mov	r3,r2
  805504:	e0bffd17 	ldw	r2,-12(fp)
  805508:	10c03245 	stb	r3,201(r2)
  d->_g150 = d->_pg186;
  80550c:	e0bffd17 	ldw	r2,-12(fp)
  805510:	10c058c3 	ldbu	r3,355(r2)
  805514:	e0bffd17 	ldw	r2,-12(fp)
  805518:	10c02e45 	stb	r3,185(r2)
  d->_g190 = d->_pg206_e4;
  80551c:	e0bffd17 	ldw	r2,-12(fp)
  805520:	10c05903 	ldbu	r3,356(r2)
  805524:	e0bffd17 	ldw	r2,-12(fp)
  805528:	10c033c5 	stb	r3,207(r2)
  d->_g193_e2 = !(d->_g150 || d->_g190);
  80552c:	e0bffd17 	ldw	r2,-12(fp)
  805530:	10802e43 	ldbu	r2,185(r2)
  805534:	10803fcc 	andi	r2,r2,255
  805538:	1080201c 	xori	r2,r2,128
  80553c:	10bfe004 	addi	r2,r2,-128
  805540:	1000081e 	bne	r2,zero,805564 <logic+0x52a0>
  805544:	e0bffd17 	ldw	r2,-12(fp)
  805548:	108033c3 	ldbu	r2,207(r2)
  80554c:	10803fcc 	andi	r2,r2,255
  805550:	1080201c 	xori	r2,r2,128
  805554:	10bfe004 	addi	r2,r2,-128
  805558:	1000021e 	bne	r2,zero,805564 <logic+0x52a0>
  80555c:	00800044 	movi	r2,1
  805560:	00000106 	br	805568 <logic+0x52a4>
  805564:	0005883a 	mov	r2,zero
  805568:	1007883a 	mov	r3,r2
  80556c:	e0bffd17 	ldw	r2,-12(fp)
  805570:	10c04f45 	stb	r3,317(r2)
  d->_g196 = d->_g190 || d->_g150;
  805574:	e0bffd17 	ldw	r2,-12(fp)
  805578:	108033c3 	ldbu	r2,207(r2)
  80557c:	10803fcc 	andi	r2,r2,255
  805580:	1080201c 	xori	r2,r2,128
  805584:	10bfe004 	addi	r2,r2,-128
  805588:	1000061e 	bne	r2,zero,8055a4 <logic+0x52e0>
  80558c:	e0bffd17 	ldw	r2,-12(fp)
  805590:	10802e43 	ldbu	r2,185(r2)
  805594:	10803fcc 	andi	r2,r2,255
  805598:	1080201c 	xori	r2,r2,128
  80559c:	10bfe004 	addi	r2,r2,-128
  8055a0:	10000226 	beq	r2,zero,8055ac <logic+0x52e8>
  8055a4:	00800044 	movi	r2,1
  8055a8:	00000106 	br	8055b0 <logic+0x52ec>
  8055ac:	0005883a 	mov	r2,zero
  8055b0:	1007883a 	mov	r3,r2
  8055b4:	e0bffd17 	ldw	r2,-12(fp)
  8055b8:	10c03485 	stb	r3,210(r2)
  d->_cg191 = d->_PaceMaker_local_lri_clk < LRI_VALUE - 1;
  8055bc:	e13ffd17 	ldw	r4,-12(fp)
  8055c0:	20801417 	ldw	r2,80(r4)
  8055c4:	20c01517 	ldw	r3,84(r4)
  8055c8:	04000044 	movi	r16,1
  8055cc:	000d883a 	mov	r6,zero
  8055d0:	01d023b4 	movhi	r7,16526
  8055d4:	39ea0004 	addi	r7,r7,-22528
  8055d8:	1009883a 	mov	r4,r2
  8055dc:	180b883a 	mov	r5,r3
  8055e0:	0806f2c0 	call	806f2c <__ledf2>
  8055e4:	10000116 	blt	r2,zero,8055ec <logic+0x5328>
  8055e8:	0021883a 	mov	r16,zero
  8055ec:	8007883a 	mov	r3,r16
  8055f0:	e0bffd17 	ldw	r2,-12(fp)
  8055f4:	10c04885 	stb	r3,290(r2)
  d->_g190 = d->_g196 && d->_cg191;
  8055f8:	e0bffd17 	ldw	r2,-12(fp)
  8055fc:	10803483 	ldbu	r2,210(r2)
  805600:	10803fcc 	andi	r2,r2,255
  805604:	1080201c 	xori	r2,r2,128
  805608:	10bfe004 	addi	r2,r2,-128
  80560c:	10000826 	beq	r2,zero,805630 <logic+0x536c>
  805610:	e0bffd17 	ldw	r2,-12(fp)
  805614:	10804883 	ldbu	r2,290(r2)
  805618:	10803fcc 	andi	r2,r2,255
  80561c:	1080201c 	xori	r2,r2,128
  805620:	10bfe004 	addi	r2,r2,-128
  805624:	10000226 	beq	r2,zero,805630 <logic+0x536c>
  805628:	00800044 	movi	r2,1
  80562c:	00000106 	br	805634 <logic+0x5370>
  805630:	0005883a 	mov	r2,zero
  805634:	1007883a 	mov	r3,r2
  805638:	e0bffd17 	ldw	r2,-12(fp)
  80563c:	10c033c5 	stb	r3,207(r2)
  if (d->_g190) {
  805640:	e0bffd17 	ldw	r2,-12(fp)
  805644:	108033c3 	ldbu	r2,207(r2)
  805648:	10803fcc 	andi	r2,r2,255
  80564c:	1080201c 	xori	r2,r2,128
  805650:	10bfe004 	addi	r2,r2,-128
  805654:	10002a26 	beq	r2,zero,805700 <logic+0x543c>
    d->sleepT = (d->sleepT < (LRI_VALUE - 1 - d->_PaceMaker_local_lri_clk)) ? d->sleepT : (LRI_VALUE - 1 - d->_PaceMaker_local_lri_clk);
  805658:	e0bffd17 	ldw	r2,-12(fp)
  80565c:	14000217 	ldw	r16,8(r2)
  805660:	14400317 	ldw	r17,12(r2)
  805664:	e13ffd17 	ldw	r4,-12(fp)
  805668:	20801417 	ldw	r2,80(r4)
  80566c:	20c01517 	ldw	r3,84(r4)
  805670:	100d883a 	mov	r6,r2
  805674:	180f883a 	mov	r7,r3
  805678:	0009883a 	mov	r4,zero
  80567c:	015023b4 	movhi	r5,16526
  805680:	296a0004 	addi	r5,r5,-22528
  805684:	08070200 	call	807020 <__subdf3>
  805688:	1009883a 	mov	r4,r2
  80568c:	180b883a 	mov	r5,r3
  805690:	2005883a 	mov	r2,r4
  805694:	2807883a 	mov	r3,r5
  805698:	100d883a 	mov	r6,r2
  80569c:	180f883a 	mov	r7,r3
  8056a0:	8009883a 	mov	r4,r16
  8056a4:	880b883a 	mov	r5,r17
  8056a8:	0806f2c0 	call	806f2c <__ledf2>
  8056ac:	1000040e 	bge	r2,zero,8056c0 <logic+0x53fc>
  8056b0:	e13ffd17 	ldw	r4,-12(fp)
  8056b4:	20800217 	ldw	r2,8(r4)
  8056b8:	20c00317 	ldw	r3,12(r4)
  8056bc:	00000d06 	br	8056f4 <logic+0x5430>
  8056c0:	e13ffd17 	ldw	r4,-12(fp)
  8056c4:	20801417 	ldw	r2,80(r4)
  8056c8:	20c01517 	ldw	r3,84(r4)
  8056cc:	100d883a 	mov	r6,r2
  8056d0:	180f883a 	mov	r7,r3
  8056d4:	0009883a 	mov	r4,zero
  8056d8:	015023b4 	movhi	r5,16526
  8056dc:	296a0004 	addi	r5,r5,-22528
  8056e0:	08070200 	call	807020 <__subdf3>
  8056e4:	1009883a 	mov	r4,r2
  8056e8:	180b883a 	mov	r5,r3
  8056ec:	2005883a 	mov	r2,r4
  8056f0:	2807883a 	mov	r3,r5
  8056f4:	e13ffd17 	ldw	r4,-12(fp)
  8056f8:	20800215 	stw	r2,8(r4)
  8056fc:	20c00315 	stw	r3,12(r4)
  }
  d->_cg192 = d->_PaceMaker_local__Atrig11 || d->_PaceMaker_local__Atrig12;
  805700:	e0bffd17 	ldw	r2,-12(fp)
  805704:	10801183 	ldbu	r2,70(r2)
  805708:	10803fcc 	andi	r2,r2,255
  80570c:	1080201c 	xori	r2,r2,128
